
./test/hello.riscv:     file format elf64-littleriscv


Disassembly of section .text:

000000000001019c <backtrace_and_maps.constprop.0>:
   1019c:	8082                	ret

000000000001019e <oom>:
   1019e:	0005e5b7          	lui	a1,0x5e
   101a2:	1141                	addi	sp,sp,-16
   101a4:	4509                	li	a0,2
   101a6:	79858593          	addi	a1,a1,1944 # 5e798 <__PRETTY_FUNCTION__.9039+0x118>
   101aa:	e406                	sd	ra,8(sp)
   101ac:	328300ef          	jal	ra,404d4 <_dl_dprintf>
   101b0:	07f00513          	li	a0,127
   101b4:	57c100ef          	jal	ra,20730 <_exit>

00000000000101b8 <fini>:
   101b8:	6701b503          	ld	a0,1648(gp) # 6d778 <last_result+0x18>
   101bc:	6e03306f          	j	4389c <check_free.isra.0>

00000000000101c0 <_start>:
   101c0:	02c000ef          	jal	ra,101ec <_start+0x2c>
   101c4:	87aa                	mv	a5,a0
   101c6:	00000517          	auipc	a0,0x0
   101ca:	0e850513          	addi	a0,a0,232 # 102ae <main>
   101ce:	6582                	ld	a1,0(sp)
   101d0:	0030                	addi	a2,sp,8
   101d2:	ff017113          	andi	sp,sp,-16
   101d6:	00000697          	auipc	a3,0x0
   101da:	58c68693          	addi	a3,a3,1420 # 10762 <__libc_csu_init>
   101de:	00000717          	auipc	a4,0x0
   101e2:	61470713          	addi	a4,a4,1556 # 107f2 <__libc_csu_fini>
   101e6:	880a                	mv	a6,sp
   101e8:	0e60006f          	j	102ce <__libc_start_main>
   101ec:	0005d197          	auipc	gp,0x5d
   101f0:	f1c18193          	addi	gp,gp,-228 # 6d108 <__global_pointer$>
   101f4:	8082                	ret

00000000000101f6 <deregister_tm_clones>:
   101f6:	0006d537          	lui	a0,0x6d
   101fa:	0006d737          	lui	a4,0x6d
   101fe:	8d050793          	addi	a5,a0,-1840 # 6c8d0 <__TMC_END__>
   10202:	8d070713          	addi	a4,a4,-1840 # 6c8d0 <__TMC_END__>
   10206:	00f70b63          	beq	a4,a5,1021c <deregister_tm_clones+0x26>
   1020a:	00000337          	lui	t1,0x0
   1020e:	00030313          	mv	t1,t1
   10212:	00030563          	beqz	t1,1021c <deregister_tm_clones+0x26>
   10216:	8d050513          	addi	a0,a0,-1840
   1021a:	8302                	jr	t1
   1021c:	8082                	ret

000000000001021e <register_tm_clones>:
   1021e:	0006d537          	lui	a0,0x6d
   10222:	8d050793          	addi	a5,a0,-1840 # 6c8d0 <__TMC_END__>
   10226:	0006d737          	lui	a4,0x6d
   1022a:	8d070593          	addi	a1,a4,-1840 # 6c8d0 <__TMC_END__>
   1022e:	8d9d                	sub	a1,a1,a5
   10230:	858d                	srai	a1,a1,0x3
   10232:	03f5d793          	srli	a5,a1,0x3f
   10236:	95be                	add	a1,a1,a5
   10238:	8585                	srai	a1,a1,0x1
   1023a:	c991                	beqz	a1,1024e <register_tm_clones+0x30>
   1023c:	00000337          	lui	t1,0x0
   10240:	00030313          	mv	t1,t1
   10244:	00030563          	beqz	t1,1024e <register_tm_clones+0x30>
   10248:	8d050513          	addi	a0,a0,-1840
   1024c:	8302                	jr	t1
   1024e:	8082                	ret

0000000000010250 <__do_global_dtors_aux>:
   10250:	1141                	addi	sp,sp,-16
   10252:	e022                	sd	s0,0(sp)
   10254:	c281c783          	lbu	a5,-984(gp) # 6cd30 <completed.5983>
   10258:	e406                	sd	ra,8(sp)
   1025a:	e38d                	bnez	a5,1027c <__do_global_dtors_aux+0x2c>
   1025c:	f9bff0ef          	jal	ra,101f6 <deregister_tm_clones>
   10260:	0004b7b7          	lui	a5,0x4b
   10264:	29678793          	addi	a5,a5,662 # 4b296 <__deregister_frame_info>
   10268:	c799                	beqz	a5,10276 <__do_global_dtors_aux+0x26>
   1026a:	00066537          	lui	a0,0x66
   1026e:	71050513          	addi	a0,a0,1808 # 66710 <__EH_FRAME_BEGIN__>
   10272:	0243b0ef          	jal	ra,4b296 <__deregister_frame_info>
   10276:	4785                	li	a5,1
   10278:	c2f18423          	sb	a5,-984(gp) # 6cd30 <completed.5983>
   1027c:	60a2                	ld	ra,8(sp)
   1027e:	6402                	ld	s0,0(sp)
   10280:	0141                	addi	sp,sp,16
   10282:	8082                	ret

0000000000010284 <frame_dummy>:
   10284:	0004b7b7          	lui	a5,0x4b
   10288:	0b078793          	addi	a5,a5,176 # 4b0b0 <__register_frame_info>
   1028c:	cf99                	beqz	a5,102aa <frame_dummy+0x26>
   1028e:	00066537          	lui	a0,0x66
   10292:	1141                	addi	sp,sp,-16
   10294:	c3018593          	addi	a1,gp,-976 # 6cd38 <object.5988>
   10298:	71050513          	addi	a0,a0,1808 # 66710 <__EH_FRAME_BEGIN__>
   1029c:	e406                	sd	ra,8(sp)
   1029e:	6133a0ef          	jal	ra,4b0b0 <__register_frame_info>
   102a2:	60a2                	ld	ra,8(sp)
   102a4:	0141                	addi	sp,sp,16
   102a6:	f79ff06f          	j	1021e <register_tm_clones>
   102aa:	f75ff06f          	j	1021e <register_tm_clones>

00000000000102ae <main>:
   102ae:	1141                	addi	sp,sp,-16
   102b0:	e406                	sd	ra,8(sp)
   102b2:	e022                	sd	s0,0(sp)
   102b4:	0800                	addi	s0,sp,16
   102b6:	0004c7b7          	lui	a5,0x4c
   102ba:	1a078513          	addi	a0,a5,416 # 4c1a0 <arena_thread_freeres+0xe8>
   102be:	5dd040ef          	jal	ra,1509a <_IO_printf>
   102c2:	4781                	li	a5,0
   102c4:	853e                	mv	a0,a5
   102c6:	60a2                	ld	ra,8(sp)
   102c8:	6402                	ld	s0,0(sp)
   102ca:	0141                	addi	sp,sp,16
   102cc:	8082                	ret

00000000000102ce <__libc_start_main>:
   102ce:	7129                	addi	sp,sp,-320
   102d0:	000008b7          	lui	a7,0x0
   102d4:	fa22                	sd	s0,304(sp)
   102d6:	f626                	sd	s1,296(sp)
   102d8:	f24a                	sd	s2,288(sp)
   102da:	fe06                	sd	ra,312(sp)
   102dc:	00088313          	mv	t1,a7
   102e0:	ec2a                	sd	a0,24(sp)
   102e2:	e42e                	sd	a1,8(sp)
   102e4:	e832                	sd	a2,16(sp)
   102e6:	893e                	mv	s2,a5
   102e8:	8436                	mv	s0,a3
   102ea:	84ba                	mv	s1,a4
   102ec:	4781                	li	a5,0
   102ee:	00030663          	beqz	t1,102fa <__libc_start_main+0x2c>
   102f2:	0008a783          	lw	a5,0(a7) # 0 <_nl_current_LC_CTYPE>
   102f6:	0017b793          	seqz	a5,a5
   102fa:	6722                	ld	a4,8(sp)
   102fc:	00170513          	addi	a0,a4,1
   10300:	6742                	ld	a4,16(sp)
   10302:	050e                	slli	a0,a0,0x3
   10304:	953a                	add	a0,a0,a4
   10306:	94f1a823          	sw	a5,-1712(gp) # 6ca58 <__libc_multiple_libcs>
   1030a:	aca1b023          	sd	a0,-1344(gp) # 6cbc8 <__environ>
   1030e:	0006b7b7          	lui	a5,0x6b
   10312:	fb07b823          	sd	a6,-80(a5) # 6afb0 <__libc_stack_end>
   10316:	0521                	addi	a0,a0,8
   10318:	ff853783          	ld	a5,-8(a0)
   1031c:	ffed                	bnez	a5,10316 <__libc_start_main+0x48>
   1031e:	418120ef          	jal	ra,22736 <_dl_aux_init>
   10322:	0006e7b7          	lui	a5,0x6e
   10326:	f387b703          	ld	a4,-200(a5) # 6df38 <_dl_phdr>
   1032a:	10070863          	beqz	a4,1043a <__libc_start_main+0x16c>
   1032e:	3c1120ef          	jal	ra,22eee <__libc_init_secure>
   10332:	ac01b503          	ld	a0,-1344(gp) # 6cbc8 <__environ>
   10336:	006120ef          	jal	ra,2233c <__tunables_init>
   1033a:	26a000ef          	jal	ra,105a4 <__libc_setup_tls>
   1033e:	0006b7b7          	lui	a5,0x6b
   10342:	fa07b783          	ld	a5,-96(a5) # 6afa0 <_dl_random>
   10346:	9501a883          	lw	a7,-1712(gp) # 6ca58 <__libc_multiple_libcs>
   1034a:	0017c803          	lbu	a6,1(a5)
   1034e:	0007c703          	lbu	a4,0(a5)
   10352:	0027c503          	lbu	a0,2(a5)
   10356:	0037c583          	lbu	a1,3(a5)
   1035a:	0047c603          	lbu	a2,4(a5)
   1035e:	0822                	slli	a6,a6,0x8
   10360:	0057c683          	lbu	a3,5(a5)
   10364:	00e86833          	or	a6,a6,a4
   10368:	0542                	slli	a0,a0,0x10
   1036a:	0067c703          	lbu	a4,6(a5)
   1036e:	01056533          	or	a0,a0,a6
   10372:	05e2                	slli	a1,a1,0x18
   10374:	0077c783          	lbu	a5,7(a5)
   10378:	8dc9                	or	a1,a1,a0
   1037a:	1602                	slli	a2,a2,0x20
   1037c:	8e4d                	or	a2,a2,a1
   1037e:	16a2                	slli	a3,a3,0x28
   10380:	8ed1                	or	a3,a3,a2
   10382:	1742                	slli	a4,a4,0x30
   10384:	8f55                	or	a4,a4,a3
   10386:	17e2                	slli	a5,a5,0x38
   10388:	8fd9                	or	a5,a5,a4
   1038a:	f007f793          	andi	a5,a5,-256
   1038e:	0006b737          	lui	a4,0x6b
   10392:	baf73023          	sd	a5,-1120(a4) # 6aba0 <__fini_array_end>
   10396:	0e088963          	beqz	a7,10488 <__libc_start_main+0x1ba>
   1039a:	000007b7          	lui	a5,0x0
   1039e:	00078793          	mv	a5,a5
   103a2:	c789                	beqz	a5,103ac <__libc_start_main+0xde>
   103a4:	ffff0097          	auipc	ra,0xffff0
   103a8:	c5c080e7          	jalr	-932(ra) # 0 <_nl_current_LC_CTYPE>
   103ac:	0006b7b7          	lui	a5,0x6b
   103b0:	fa07b583          	ld	a1,-96(a5) # 6afa0 <_dl_random>
   103b4:	4621                	li	a2,8
   103b6:	1028                	addi	a0,sp,40
   103b8:	05a1                	addi	a1,a1,8
   103ba:	1010f0ef          	jal	ra,1fcba <memcpy>
   103be:	7722                	ld	a4,40(sp)
   103c0:	0006b7b7          	lui	a5,0x6b
   103c4:	bae7b423          	sd	a4,-1112(a5) # 6aba8 <__pointer_chk_guard_local>
   103c8:	00090763          	beqz	s2,103d6 <__libc_start_main+0x108>
   103cc:	4601                	li	a2,0
   103ce:	4581                	li	a1,0
   103d0:	854a                	mv	a0,s2
   103d2:	7b8040ef          	jal	ra,14b8a <__cxa_atexit>
   103d6:	ac01b603          	ld	a2,-1344(gp) # 6cbc8 <__environ>
   103da:	65c2                	ld	a1,16(sp)
   103dc:	6522                	ld	a0,8(sp)
   103de:	481120ef          	jal	ra,2305e <__libc_init_first>
   103e2:	c491                	beqz	s1,103ee <__libc_start_main+0x120>
   103e4:	4601                	li	a2,0
   103e6:	4581                	li	a1,0
   103e8:	8526                	mv	a0,s1
   103ea:	7a0040ef          	jal	ra,14b8a <__cxa_atexit>
   103ee:	0006b7b7          	lui	a5,0x6b
   103f2:	fb87a783          	lw	a5,-72(a5) # 6afb8 <__libc_enable_secure>
   103f6:	c399                	beqz	a5,103fc <__libc_start_main+0x12e>
   103f8:	184000ef          	jal	ra,1057c <__libc_check_standard_fds>
   103fc:	c411                	beqz	s0,10408 <__libc_start_main+0x13a>
   103fe:	ac01b603          	ld	a2,-1344(gp) # 6cbc8 <__environ>
   10402:	65c2                	ld	a1,16(sp)
   10404:	6522                	ld	a0,8(sp)
   10406:	9402                	jalr	s0
   10408:	4581                	li	a1,0
   1040a:	4501                	li	a0,0
   1040c:	627110ef          	jal	ra,22232 <_dl_debug_initialize>
   10410:	1028                	addi	a0,sp,40
   10412:	393030ef          	jal	ra,13fa4 <_setjmp>
   10416:	e545                	bnez	a0,104be <__libc_start_main+0x1f0>
   10418:	a0023683          	ld	a3,-1536(tp) # fffffffffffffa00 <_end+0xfffffffffff91978>
   1041c:	9f823703          	ld	a4,-1544(tp) # fffffffffffff9f8 <_end+0xfffffffffff91970>
   10420:	ac01b603          	ld	a2,-1344(gp) # 6cbc8 <__environ>
   10424:	65c2                	ld	a1,16(sp)
   10426:	6522                	ld	a0,8(sp)
   10428:	67e2                	ld	a5,24(sp)
   1042a:	e63a                	sd	a4,264(sp)
   1042c:	e236                	sd	a3,256(sp)
   1042e:	1038                	addi	a4,sp,40
   10430:	a0e23023          	sd	a4,-1536(tp) # fffffffffffffa00 <_end+0xfffffffffff91978>
   10434:	9782                	jalr	a5
   10436:	5c6040ef          	jal	ra,149fc <exit>
   1043a:	00010737          	lui	a4,0x10
   1043e:	00070713          	mv	a4,a4
   10442:	ee0706e3          	beqz	a4,1032e <__libc_start_main+0x60>
   10446:	03675683          	lhu	a3,54(a4) # 10036 <__ehdr_start+0x36>
   1044a:	03800613          	li	a2,56
   1044e:	02c68263          	beq	a3,a2,10472 <__libc_start_main+0x1a4>
   10452:	0004c6b7          	lui	a3,0x4c
   10456:	0004c5b7          	lui	a1,0x4c
   1045a:	0004c537          	lui	a0,0x4c
   1045e:	23068693          	addi	a3,a3,560 # 4c230 <__PRETTY_FUNCTION__.10062>
   10462:	0b400613          	li	a2,180
   10466:	1b058593          	addi	a1,a1,432 # 4c1b0 <arena_thread_freeres+0xf8>
   1046a:	1c050513          	addi	a0,a0,448 # 4c1c0 <arena_thread_freeres+0x108>
   1046e:	4d4000ef          	jal	ra,10942 <__assert_fail>
   10472:	7314                	ld	a3,32(a4)
   10474:	03875603          	lhu	a2,56(a4)
   10478:	9736                	add	a4,a4,a3
   1047a:	f2e7bc23          	sd	a4,-200(a5)
   1047e:	0006e7b7          	lui	a5,0x6e
   10482:	f6c7b823          	sd	a2,-144(a5) # 6df70 <_dl_phnum>
   10486:	b565                	j	1032e <__libc_start_main+0x60>
   10488:	2e7120ef          	jal	ra,22f6e <_dl_discover_osversion>
   1048c:	06054363          	bltz	a0,104f2 <__libc_start_main+0x224>
   10490:	0006e7b7          	lui	a5,0x6e
   10494:	f907a703          	lw	a4,-112(a5) # 6df90 <_dl_osversion>
   10498:	0005079b          	sext.w	a5,a0
   1049c:	eb21                	bnez	a4,104ec <__libc_start_main+0x21e>
   1049e:	0006e737          	lui	a4,0x6e
   104a2:	f8f72823          	sw	a5,-112(a4) # 6df90 <_dl_osversion>
   104a6:	000417b7          	lui	a5,0x41
   104aa:	eff78793          	addi	a5,a5,-257 # 40eff <_dl_count_modids+0x23>
   104ae:	eea7c6e3          	blt	a5,a0,1039a <__libc_start_main+0xcc>
   104b2:	0004c537          	lui	a0,0x4c
   104b6:	1f050513          	addi	a0,a0,496 # 4c1f0 <arena_thread_freeres+0x138>
   104ba:	648060ef          	jal	ra,16b02 <__libc_fatal>
   104be:	ffff0097          	auipc	ra,0xffff0
   104c2:	b42080e7          	jalr	-1214(ra) # 0 <_nl_current_LC_CTYPE>
   104c6:	00000737          	lui	a4,0x0
   104ca:	56fd                	li	a3,-1
   104cc:	00070713          	mv	a4,a4
   104d0:	04d727af          	amoadd.w.aq	a5,a3,(a4)
   104d4:	2781                	sext.w	a5,a5
   104d6:	4705                	li	a4,1
   104d8:	00e78863          	beq	a5,a4,104e8 <__libc_start_main+0x21a>
   104dc:	05d00893          	li	a7,93
   104e0:	4501                	li	a0,0
   104e2:	00000073          	ecall
   104e6:	bfdd                	j	104dc <__libc_start_main+0x20e>
   104e8:	4501                	li	a0,0
   104ea:	b7b1                	j	10436 <__libc_start_main+0x168>
   104ec:	fae7fde3          	bleu	a4,a5,104a6 <__libc_start_main+0x1d8>
   104f0:	b77d                	j	1049e <__libc_start_main+0x1d0>
   104f2:	0004c537          	lui	a0,0x4c
   104f6:	20850513          	addi	a0,a0,520 # 4c208 <arena_thread_freeres+0x150>
   104fa:	608060ef          	jal	ra,16b02 <__libc_fatal>

00000000000104fe <check_one_fd>:
   104fe:	7135                	addi	sp,sp,-160
   10500:	e922                	sd	s0,144(sp)
   10502:	842e                	mv	s0,a1
   10504:	4585                	li	a1,1
   10506:	e526                	sd	s1,136(sp)
   10508:	ed06                	sd	ra,152(sp)
   1050a:	e14a                	sd	s2,128(sp)
   1050c:	84aa                	mv	s1,a0
   1050e:	029100ef          	jal	ra,20d36 <__libc_fcntl>
   10512:	57fd                	li	a5,-1
   10514:	00f50863          	beq	a0,a5,10524 <check_one_fd+0x26>
   10518:	60ea                	ld	ra,152(sp)
   1051a:	644a                	ld	s0,144(sp)
   1051c:	64aa                	ld	s1,136(sp)
   1051e:	690a                	ld	s2,128(sp)
   10520:	610d                	addi	sp,sp,160
   10522:	8082                	ret
   10524:	02022703          	lw	a4,32(tp) # 20 <__libc_errno>
   10528:	47a5                	li	a5,9
   1052a:	fef717e3          	bne	a4,a5,10518 <check_one_fd+0x1a>
   1052e:	000207b7          	lui	a5,0x20
   10532:	02f41e63          	bne	s0,a5,1056e <check_one_fd+0x70>
   10536:	0004c537          	lui	a0,0x4c
   1053a:	10300913          	li	s2,259
   1053e:	25850513          	addi	a0,a0,600 # 4c258 <__PRETTY_FUNCTION__.10062+0x28>
   10542:	4601                	li	a2,0
   10544:	85a2                	mv	a1,s0
   10546:	5ba100ef          	jal	ra,20b00 <__open64_nocancel>
   1054a:	02a49163          	bne	s1,a0,1056c <check_one_fd+0x6e>
   1054e:	860a                	mv	a2,sp
   10550:	85a6                	mv	a1,s1
   10552:	4501                	li	a0,0
   10554:	4bc100ef          	jal	ra,20a10 <__fxstat>
   10558:	e911                	bnez	a0,1056c <check_one_fd+0x6e>
   1055a:	47c2                	lw	a5,16(sp)
   1055c:	66bd                	lui	a3,0xf
   1055e:	6709                	lui	a4,0x2
   10560:	8ff5                	and	a5,a5,a3
   10562:	00e79563          	bne	a5,a4,1056c <check_one_fd+0x6e>
   10566:	7782                	ld	a5,32(sp)
   10568:	fb2788e3          	beq	a5,s2,10518 <check_one_fd+0x1a>
   1056c:	9002                	ebreak
   1056e:	0004c537          	lui	a0,0x4c
   10572:	10700913          	li	s2,263
   10576:	24850513          	addi	a0,a0,584 # 4c248 <__PRETTY_FUNCTION__.10062+0x18>
   1057a:	b7e1                	j	10542 <check_one_fd+0x44>

000000000001057c <__libc_check_standard_fds>:
   1057c:	000205b7          	lui	a1,0x20
   10580:	1141                	addi	sp,sp,-16
   10582:	0585                	addi	a1,a1,1
   10584:	4501                	li	a0,0
   10586:	e406                	sd	ra,8(sp)
   10588:	f77ff0ef          	jal	ra,104fe <check_one_fd>
   1058c:	000205b7          	lui	a1,0x20
   10590:	4505                	li	a0,1
   10592:	f6dff0ef          	jal	ra,104fe <check_one_fd>
   10596:	60a2                	ld	ra,8(sp)
   10598:	000205b7          	lui	a1,0x20
   1059c:	4509                	li	a0,2
   1059e:	0141                	addi	sp,sp,16
   105a0:	f5fff06f          	j	104fe <check_one_fd>

00000000000105a4 <__libc_setup_tls>:
   105a4:	0006e7b7          	lui	a5,0x6e
   105a8:	f387b783          	ld	a5,-200(a5) # 6df38 <_dl_phdr>
   105ac:	7119                	addi	sp,sp,-128
   105ae:	f4a6                	sd	s1,104(sp)
   105b0:	0006c737          	lui	a4,0x6c
   105b4:	fc86                	sd	ra,120(sp)
   105b6:	f8a2                	sd	s0,112(sp)
   105b8:	f0ca                	sd	s2,96(sp)
   105ba:	ecce                	sd	s3,88(sp)
   105bc:	e8d2                	sd	s4,80(sp)
   105be:	e4d6                	sd	s5,72(sp)
   105c0:	e0da                	sd	s6,64(sp)
   105c2:	fc5e                	sd	s7,56(sp)
   105c4:	f862                	sd	s8,48(sp)
   105c6:	f466                	sd	s9,40(sp)
   105c8:	f06a                	sd	s10,32(sp)
   105ca:	ec6e                	sd	s11,24(sp)
   105cc:	41073483          	ld	s1,1040(a4) # 6c410 <_dl_ns>
   105d0:	cb8d                	beqz	a5,10602 <__libc_setup_tls+0x5e>
   105d2:	0006e737          	lui	a4,0x6e
   105d6:	f7073683          	ld	a3,-144(a4) # 6df70 <_dl_phnum>
   105da:	00369713          	slli	a4,a3,0x3
   105de:	8f15                	sub	a4,a4,a3
   105e0:	070e                	slli	a4,a4,0x3
   105e2:	973e                	add	a4,a4,a5
   105e4:	00e7ff63          	bleu	a4,a5,10602 <__libc_setup_tls+0x5e>
   105e8:	4390                	lw	a2,0(a5)
   105ea:	469d                	li	a3,7
   105ec:	10d60363          	beq	a2,a3,106f2 <__libc_setup_tls+0x14e>
   105f0:	461d                	li	a2,7
   105f2:	a021                	j	105fa <__libc_setup_tls+0x56>
   105f4:	4394                	lw	a3,0(a5)
   105f6:	0ec68e63          	beq	a3,a2,106f2 <__libc_setup_tls+0x14e>
   105fa:	03878793          	addi	a5,a5,56
   105fe:	fee7ebe3          	bltu	a5,a4,105f4 <__libc_setup_tls+0x50>
   10602:	57c1                	li	a5,-16
   10604:	4a81                	li	s5,0
   10606:	473d                	li	a4,15
   10608:	4401                	li	s0,0
   1060a:	4b01                	li	s6,0
   1060c:	e43e                	sd	a5,8(sp)
   1060e:	4dc1                	li	s11,16
   10610:	4b81                	li	s7,0
   10612:	4981                	li	s3,0
   10614:	4a01                	li	s4,0
   10616:	4c81                	li	s9,0
   10618:	4d05                	li	s10,1
   1061a:	8601b503          	ld	a0,-1952(gp) # 6c968 <_dl_tls_static_size>
   1061e:	e03a                	sd	a4,0(sp)
   10620:	70050513          	addi	a0,a0,1792
   10624:	9556                	add	a0,a0,s5
   10626:	9566                	add	a0,a0,s9
   10628:	956e                	add	a0,a0,s11
   1062a:	487100ef          	jal	ra,212b0 <__sbrk>
   1062e:	6702                	ld	a4,0(sp)
   10630:	67a2                	ld	a5,8(sp)
   10632:	70050913          	addi	s2,a0,1792
   10636:	993a                	add	s2,s2,a4
   10638:	00f97933          	and	s2,s2,a5
   1063c:	0006e6b7          	lui	a3,0x6e
   10640:	01590733          	add	a4,s2,s5
   10644:	a7868793          	addi	a5,a3,-1416 # 6da78 <_dl_static_dtv>
   10648:	4364b823          	sd	s6,1072(s1)
   1064c:	8652                	mv	a2,s4
   1064e:	85ce                	mv	a1,s3
   10650:	f398                	sd	a4,32(a5)
   10652:	853a                	mv	a0,a4
   10654:	03e00813          	li	a6,62
   10658:	0207b423          	sd	zero,40(a5)
   1065c:	a706bc23          	sd	a6,-1416(a3)
   10660:	65a0f0ef          	jal	ra,1fcba <memcpy>
   10664:	03a457b3          	divu	a5,s0,s10
   10668:	0006e6b7          	lui	a3,0x6e
   1066c:	8601b703          	ld	a4,-1952(gp) # 6c968 <_dl_tls_static_size>
   10670:	a8868693          	addi	a3,a3,-1400 # 6da88 <_dl_static_dtv+0x10>
   10674:	fed93823          	sd	a3,-16(s2)
   10678:	c6018693          	addi	a3,gp,-928 # 6cd68 <static_slotinfo>
   1067c:	04000593          	li	a1,64
   10680:	4605                	li	a2,1
   10682:	e28c                	sd	a1,0(a3)
   10684:	073d                	addi	a4,a4,15
   10686:	0006e5b7          	lui	a1,0x6e
   1068a:	a6c5b823          	sd	a2,-1424(a1) # 6da70 <_dl_tls_max_dtv_idx>
   1068e:	0006e5b7          	lui	a1,0x6e
   10692:	f684                	sd	s1,40(a3)
   10694:	e6d5bc23          	sd	a3,-392(a1) # 6de78 <_dl_tls_dtv_slotinfo_list>
   10698:	70e6                	ld	ra,120(sp)
   1069a:	0006e6b7          	lui	a3,0x6e
   1069e:	7446                	ld	s0,112(sp)
   106a0:	a7b6b423          	sd	s11,-1432(a3) # 6da68 <_dl_tls_static_align>
   106a4:	0006e6b7          	lui	a3,0x6e
   106a8:	4374b023          	sd	s7,1056(s1)
   106ac:	4194bc23          	sd	s9,1048(s1)
   106b0:	4134b423          	sd	s3,1032(s1)
   106b4:	4144b823          	sd	s4,1040(s1)
   106b8:	42c4bc23          	sd	a2,1080(s1)
   106bc:	e8c6b823          	sd	a2,-368(a3) # 6de90 <_dl_tls_static_nelem>
   106c0:	74a6                	ld	s1,104(sp)
   106c2:	69e6                	ld	s3,88(sp)
   106c4:	6a46                	ld	s4,80(sp)
   106c6:	6b06                	ld	s6,64(sp)
   106c8:	7be2                	ld	s7,56(sp)
   106ca:	7ca2                	ld	s9,40(sp)
   106cc:	6de2                	ld	s11,24(sp)
   106ce:	824a                	mv	tp,s2
   106d0:	7906                	ld	s2,96(sp)
   106d2:	03a787b3          	mul	a5,a5,s10
   106d6:	7d02                	ld	s10,32(sp)
   106d8:	97d6                	add	a5,a5,s5
   106da:	973e                	add	a4,a4,a5
   106dc:	9b41                	andi	a4,a4,-16
   106de:	86e1b023          	sd	a4,-1952(gp) # 6c968 <_dl_tls_static_size>
   106e2:	0006e737          	lui	a4,0x6e
   106e6:	a6f73023          	sd	a5,-1440(a4) # 6da60 <_dl_tls_static_used>
   106ea:	6aa6                	ld	s5,72(sp)
   106ec:	7c42                	ld	s8,48(sp)
   106ee:	6109                	addi	sp,sp,128
   106f0:	8082                	ret
   106f2:	0004b983          	ld	s3,0(s1)
   106f6:	6b94                	ld	a3,16(a5)
   106f8:	0307bb83          	ld	s7,48(a5)
   106fc:	4741                	li	a4,16
   106fe:	0287bc83          	ld	s9,40(a5)
   10702:	0207ba03          	ld	s4,32(a5)
   10706:	99b6                	add	s3,s3,a3
   10708:	03776263          	bltu	a4,s7,1072c <__libc_setup_tls+0x188>
   1070c:	020b8863          	beqz	s7,1073c <__libc_setup_tls+0x198>
   10710:	57c1                	li	a5,-16
   10712:	fffb8413          	addi	s0,s7,-1
   10716:	473d                	li	a4,15
   10718:	e43e                	sd	a5,8(sp)
   1071a:	4dc1                	li	s11,16
   1071c:	037457b3          	divu	a5,s0,s7
   10720:	8d5e                	mv	s10,s7
   10722:	9466                	add	s0,s0,s9
   10724:	03778ab3          	mul	s5,a5,s7
   10728:	8b56                	mv	s6,s5
   1072a:	bdc5                	j	1061a <__libc_setup_tls+0x76>
   1072c:	fffb8713          	addi	a4,s7,-1
   10730:	417007b3          	neg	a5,s7
   10734:	e43e                	sd	a5,8(sp)
   10736:	843a                	mv	s0,a4
   10738:	8dde                	mv	s11,s7
   1073a:	b7cd                	j	1071c <__libc_setup_tls+0x178>
   1073c:	57c1                	li	a5,-16
   1073e:	4a81                	li	s5,0
   10740:	8466                	mv	s0,s9
   10742:	473d                	li	a4,15
   10744:	4b01                	li	s6,0
   10746:	e43e                	sd	a5,8(sp)
   10748:	4dc1                	li	s11,16
   1074a:	4d05                	li	s10,1
   1074c:	b5f9                	j	1061a <__libc_setup_tls+0x76>

000000000001074e <__tls_get_addr>:
   1074e:	ff023703          	ld	a4,-16(tp) # fffffffffffffff0 <_end+0xfffffffffff91f68>
   10752:	651c                	ld	a5,8(a0)
   10754:	6b08                	ld	a0,16(a4)
   10756:	6705                	lui	a4,0x1
   10758:	80070713          	addi	a4,a4,-2048 # 800 <catch_hook+0x7a8>
   1075c:	97ba                	add	a5,a5,a4
   1075e:	953e                	add	a0,a0,a5
   10760:	8082                	ret

0000000000010762 <__libc_csu_init>:
   10762:	7139                	addi	sp,sp,-64
   10764:	f822                	sd	s0,48(sp)
   10766:	f04a                	sd	s2,32(sp)
   10768:	0006b437          	lui	s0,0x6b
   1076c:	0006b937          	lui	s2,0x6b
   10770:	b8040793          	addi	a5,s0,-1152 # 6ab80 <__preinit_array_start>
   10774:	b8890913          	addi	s2,s2,-1144 # 6ab88 <__preinit_array_end>
   10778:	40f90933          	sub	s2,s2,a5
   1077c:	ec4e                	sd	s3,24(sp)
   1077e:	e852                	sd	s4,16(sp)
   10780:	e456                	sd	s5,8(sp)
   10782:	fc06                	sd	ra,56(sp)
   10784:	f426                	sd	s1,40(sp)
   10786:	40395913          	srai	s2,s2,0x3
   1078a:	89aa                	mv	s3,a0
   1078c:	8a2e                	mv	s4,a1
   1078e:	8ab2                	mv	s5,a2
   10790:	00090e63          	beqz	s2,107ac <__libc_csu_init+0x4a>
   10794:	b8040413          	addi	s0,s0,-1152
   10798:	4481                	li	s1,0
   1079a:	601c                	ld	a5,0(s0)
   1079c:	8656                	mv	a2,s5
   1079e:	85d2                	mv	a1,s4
   107a0:	854e                	mv	a0,s3
   107a2:	0485                	addi	s1,s1,1
   107a4:	9782                	jalr	a5
   107a6:	0421                	addi	s0,s0,8
   107a8:	fe9919e3          	bne	s2,s1,1079a <__libc_csu_init+0x38>
   107ac:	0006b437          	lui	s0,0x6b
   107b0:	0006b937          	lui	s2,0x6b
   107b4:	b8840793          	addi	a5,s0,-1144 # 6ab88 <__preinit_array_end>
   107b8:	b9090913          	addi	s2,s2,-1136 # 6ab90 <__init_array_end>
   107bc:	40f90933          	sub	s2,s2,a5
   107c0:	40395913          	srai	s2,s2,0x3
   107c4:	00090e63          	beqz	s2,107e0 <__libc_csu_init+0x7e>
   107c8:	b8840413          	addi	s0,s0,-1144
   107cc:	4481                	li	s1,0
   107ce:	601c                	ld	a5,0(s0)
   107d0:	8656                	mv	a2,s5
   107d2:	85d2                	mv	a1,s4
   107d4:	854e                	mv	a0,s3
   107d6:	0485                	addi	s1,s1,1
   107d8:	9782                	jalr	a5
   107da:	0421                	addi	s0,s0,8
   107dc:	fe9919e3          	bne	s2,s1,107ce <__libc_csu_init+0x6c>
   107e0:	70e2                	ld	ra,56(sp)
   107e2:	7442                	ld	s0,48(sp)
   107e4:	74a2                	ld	s1,40(sp)
   107e6:	7902                	ld	s2,32(sp)
   107e8:	69e2                	ld	s3,24(sp)
   107ea:	6a42                	ld	s4,16(sp)
   107ec:	6aa2                	ld	s5,8(sp)
   107ee:	6121                	addi	sp,sp,64
   107f0:	8082                	ret

00000000000107f2 <__libc_csu_fini>:
   107f2:	1101                	addi	sp,sp,-32
   107f4:	e822                	sd	s0,16(sp)
   107f6:	0006b7b7          	lui	a5,0x6b
   107fa:	0006b437          	lui	s0,0x6b
   107fe:	b9040413          	addi	s0,s0,-1136 # 6ab90 <__init_array_end>
   10802:	ba078793          	addi	a5,a5,-1120 # 6aba0 <__fini_array_end>
   10806:	8f81                	sub	a5,a5,s0
   10808:	ec06                	sd	ra,24(sp)
   1080a:	e426                	sd	s1,8(sp)
   1080c:	e04a                	sd	s2,0(sp)
   1080e:	4037d713          	srai	a4,a5,0x3
   10812:	cf01                	beqz	a4,1082a <__libc_csu_fini+0x38>
   10814:	17e1                	addi	a5,a5,-8
   10816:	fff70493          	addi	s1,a4,-1
   1081a:	943e                	add	s0,s0,a5
   1081c:	597d                	li	s2,-1
   1081e:	601c                	ld	a5,0(s0)
   10820:	14fd                	addi	s1,s1,-1
   10822:	1461                	addi	s0,s0,-8
   10824:	9782                	jalr	a5
   10826:	ff249ce3          	bne	s1,s2,1081e <__libc_csu_fini+0x2c>
   1082a:	60e2                	ld	ra,24(sp)
   1082c:	6442                	ld	s0,16(sp)
   1082e:	64a2                	ld	s1,8(sp)
   10830:	6902                	ld	s2,0(sp)
   10832:	6105                	addi	sp,sp,32
   10834:	8082                	ret

0000000000010836 <__assert_fail_base>:
   10836:	0006b7b7          	lui	a5,0x6b
   1083a:	ba07b783          	ld	a5,-1120(a5) # 6aba0 <__fini_array_end>
   1083e:	711d                	addi	sp,sp,-96
   10840:	000008b7          	lui	a7,0x0
   10844:	e8a2                	sd	s0,80(sp)
   10846:	e4a6                	sd	s1,72(sp)
   10848:	e0ca                	sd	s2,64(sp)
   1084a:	fc4e                	sd	s3,56(sp)
   1084c:	f852                	sd	s4,48(sp)
   1084e:	ec86                	sd	ra,88(sp)
   10850:	00088893          	mv	a7,a7
   10854:	f43e                	sd	a5,40(sp)
   10856:	84aa                	mv	s1,a0
   10858:	8a2e                	mv	s4,a1
   1085a:	8932                	mv	s2,a2
   1085c:	89b6                	mv	s3,a3
   1085e:	843a                	mv	s0,a4
   10860:	00088863          	beqz	a7,10870 <__assert_fail_base+0x3a>
   10864:	4581                	li	a1,0
   10866:	4505                	li	a0,1
   10868:	fffef097          	auipc	ra,0xfffef
   1086c:	798080e7          	jalr	1944(ra) # 0 <_nl_current_LC_CTYPE>
   10870:	8f01b603          	ld	a2,-1808(gp) # 6c9f8 <__progname>
   10874:	00064783          	lbu	a5,0(a2)
   10878:	ebd9                	bnez	a5,1090e <__assert_fail_base+0xd8>
   1087a:	0005d5b7          	lui	a1,0x5d
   1087e:	86058693          	addi	a3,a1,-1952 # 5c860 <step3b_jumps.11844+0x1e0>
   10882:	c859                	beqz	s0,10918 <__assert_fail_base+0xe2>
   10884:	0004c8b7          	lui	a7,0x4c
   10888:	26888893          	addi	a7,a7,616 # 4c268 <__PRETTY_FUNCTION__.10062+0x38>
   1088c:	087c                	addi	a5,sp,28
   1088e:	e43e                	sd	a5,8(sp)
   10890:	e052                	sd	s4,0(sp)
   10892:	8822                	mv	a6,s0
   10894:	87ce                	mv	a5,s3
   10896:	874a                	mv	a4,s2
   10898:	85a6                	mv	a1,s1
   1089a:	1008                	addi	a0,sp,32
   1089c:	045040ef          	jal	ra,150e0 <___asprintf>
   108a0:	08054363          	bltz	a0,10926 <__assert_fail_base+0xf0>
   108a4:	7602                	ld	a2,32(sp)
   108a6:	000655b7          	lui	a1,0x65
   108aa:	0c058593          	addi	a1,a1,192 # 650c0 <__sys_errlist_internal+0x448>
   108ae:	4501                	li	a0,0
   108b0:	177040ef          	jal	ra,15226 <__fxprintf>
   108b4:	8981b503          	ld	a0,-1896(gp) # 6c9a0 <_IO_stderr>
   108b8:	509040ef          	jal	ra,155c0 <_IO_fflush>
   108bc:	9181a703          	lw	a4,-1768(gp) # 6ca20 <_dl_pagesize>
   108c0:	4872                	lw	a6,28(sp)
   108c2:	4781                	li	a5,0
   108c4:	40e006bb          	negw	a3,a4
   108c8:	00e8083b          	addw	a6,a6,a4
   108cc:	00d87833          	and	a6,a6,a3
   108d0:	2801                	sext.w	a6,a6
   108d2:	577d                	li	a4,-1
   108d4:	02200693          	li	a3,34
   108d8:	460d                	li	a2,3
   108da:	85c2                	mv	a1,a6
   108dc:	4501                	li	a0,0
   108de:	ce42                	sw	a6,28(sp)
   108e0:	2a7100ef          	jal	ra,21386 <__mmap64>
   108e4:	57fd                	li	a5,-1
   108e6:	842a                	mv	s0,a0
   108e8:	00f50e63          	beq	a0,a5,10904 <__assert_fail_base+0xce>
   108ec:	47f2                	lw	a5,28(sp)
   108ee:	7582                	ld	a1,32(sp)
   108f0:	0511                	addi	a0,a0,4
   108f2:	c01c                	sw	a5,0(s0)
   108f4:	3ac0e0ef          	jal	ra,1eca0 <strcpy>
   108f8:	8522                	mv	a0,s0
   108fa:	a3818793          	addi	a5,gp,-1480 # 6cb40 <__abort_msg>
   108fe:	0ca7b52f          	amoswap.d.aq	a0,a0,(a5)
   10902:	e91d                	bnez	a0,10938 <__assert_fail_base+0x102>
   10904:	7502                	ld	a0,32(sp)
   10906:	5520d0ef          	jal	ra,1de58 <__free>
   1090a:	059030ef          	jal	ra,14162 <abort>
   1090e:	0004c5b7          	lui	a1,0x4c
   10912:	26858693          	addi	a3,a1,616 # 4c268 <__PRETTY_FUNCTION__.10062+0x38>
   10916:	f43d                	bnez	s0,10884 <__assert_fail_base+0x4e>
   10918:	0005d8b7          	lui	a7,0x5d
   1091c:	86088413          	addi	s0,a7,-1952 # 5c860 <step3b_jumps.11844+0x1e0>
   10920:	86088893          	addi	a7,a7,-1952
   10924:	b7a5                	j	1088c <__assert_fail_base+0x56>
   10926:	0004c5b7          	lui	a1,0x4c
   1092a:	4649                	li	a2,18
   1092c:	2a058593          	addi	a1,a1,672 # 4c2a0 <errstr.10284>
   10930:	4509                	li	a0,2
   10932:	2ec100ef          	jal	ra,20c1e <__libc_write>
   10936:	bfd1                	j	1090a <__assert_fail_base+0xd4>
   10938:	00056583          	lwu	a1,0(a0)
   1093c:	279100ef          	jal	ra,213b4 <__munmap>
   10940:	b7d1                	j	10904 <__assert_fail_base+0xce>

0000000000010942 <__assert_fail>:
   10942:	7179                	addi	sp,sp,-48
   10944:	f022                	sd	s0,32(sp)
   10946:	ec26                	sd	s1,24(sp)
   10948:	842a                	mv	s0,a0
   1094a:	84ae                	mv	s1,a1
   1094c:	0004c5b7          	lui	a1,0x4c
   10950:	e84a                	sd	s2,16(sp)
   10952:	27058593          	addi	a1,a1,624 # 4c270 <__PRETTY_FUNCTION__.10062+0x40>
   10956:	8932                	mv	s2,a2
   10958:	98018513          	addi	a0,gp,-1664 # 6ca88 <_libc_intl_domainname>
   1095c:	4615                	li	a2,5
   1095e:	e44e                	sd	s3,8(sp)
   10960:	f406                	sd	ra,40(sp)
   10962:	89b6                	mv	s3,a3
   10964:	010000ef          	jal	ra,10974 <__dcgettext>
   10968:	874e                	mv	a4,s3
   1096a:	86ca                	mv	a3,s2
   1096c:	8626                	mv	a2,s1
   1096e:	85a2                	mv	a1,s0
   10970:	ec7ff0ef          	jal	ra,10836 <__assert_fail_base>

0000000000010974 <__dcgettext>:
   10974:	87b2                	mv	a5,a2
   10976:	4701                	li	a4,0
   10978:	4681                	li	a3,0
   1097a:	4601                	li	a2,0
   1097c:	22b0006f          	j	113a6 <__dcigettext>

0000000000010980 <plural_eval>:
   10980:	7179                	addi	sp,sp,-48
   10982:	f022                	sd	s0,32(sp)
   10984:	842a                	mv	s0,a0
   10986:	401c                	lw	a5,0(s0)
   10988:	ec26                	sd	s1,24(sp)
   1098a:	e84a                	sd	s2,16(sp)
   1098c:	e44e                	sd	s3,8(sp)
   1098e:	e052                	sd	s4,0(sp)
   10990:	f406                	sd	ra,40(sp)
   10992:	4485                	li	s1,1
   10994:	89ae                	mv	s3,a1
   10996:	4909                	li	s2,2
   10998:	4a0d                	li	s4,3
   1099a:	02978563          	beq	a5,s1,109c4 <plural_eval+0x44>
   1099e:	06f4d663          	ble	a5,s1,10a0a <plural_eval+0x8a>
   109a2:	05278063          	beq	a5,s2,109e2 <plural_eval+0x62>
   109a6:	07479b63          	bne	a5,s4,10a1c <plural_eval+0x9c>
   109aa:	6408                	ld	a0,8(s0)
   109ac:	85ce                	mv	a1,s3
   109ae:	fd3ff0ef          	jal	ra,10980 <plural_eval>
   109b2:	00153513          	seqz	a0,a0
   109b6:	0505                	addi	a0,a0,1
   109b8:	050e                	slli	a0,a0,0x3
   109ba:	942a                	add	s0,s0,a0
   109bc:	6400                	ld	s0,8(s0)
   109be:	401c                	lw	a5,0(s0)
   109c0:	fc979fe3          	bne	a5,s1,1099e <plural_eval+0x1e>
   109c4:	6408                	ld	a0,8(s0)
   109c6:	85ce                	mv	a1,s3
   109c8:	fb9ff0ef          	jal	ra,10980 <plural_eval>
   109cc:	00153913          	seqz	s2,a0
   109d0:	70a2                	ld	ra,40(sp)
   109d2:	7402                	ld	s0,32(sp)
   109d4:	854a                	mv	a0,s2
   109d6:	64e2                	ld	s1,24(sp)
   109d8:	6942                	ld	s2,16(sp)
   109da:	69a2                	ld	s3,8(sp)
   109dc:	6a02                	ld	s4,0(sp)
   109de:	6145                	addi	sp,sp,48
   109e0:	8082                	ret
   109e2:	6408                	ld	a0,8(s0)
   109e4:	85ce                	mv	a1,s3
   109e6:	f9bff0ef          	jal	ra,10980 <plural_eval>
   109ea:	405c                	lw	a5,4(s0)
   109ec:	473d                	li	a4,15
   109ee:	892a                	mv	s2,a0
   109f0:	02e78863          	beq	a5,a4,10a20 <plural_eval+0xa0>
   109f4:	4739                	li	a4,14
   109f6:	02e79863          	bne	a5,a4,10a26 <plural_eval+0xa6>
   109fa:	d979                	beqz	a0,109d0 <plural_eval+0x50>
   109fc:	6808                	ld	a0,16(s0)
   109fe:	85ce                	mv	a1,s3
   10a00:	f81ff0ef          	jal	ra,10980 <plural_eval>
   10a04:	00a03933          	snez	s2,a0
   10a08:	b7e1                	j	109d0 <plural_eval+0x50>
   10a0a:	eb89                	bnez	a5,10a1c <plural_eval+0x9c>
   10a0c:	405c                	lw	a5,4(s0)
   10a0e:	894e                	mv	s2,s3
   10a10:	d3e1                	beqz	a5,109d0 <plural_eval+0x50>
   10a12:	00979563          	bne	a5,s1,10a1c <plural_eval+0x9c>
   10a16:	00843903          	ld	s2,8(s0)
   10a1a:	bf5d                	j	109d0 <plural_eval+0x50>
   10a1c:	4901                	li	s2,0
   10a1e:	bf4d                	j	109d0 <plural_eval+0x50>
   10a20:	dd71                	beqz	a0,109fc <plural_eval+0x7c>
   10a22:	4905                	li	s2,1
   10a24:	b775                	j	109d0 <plural_eval+0x50>
   10a26:	6808                	ld	a0,16(s0)
   10a28:	85ce                	mv	a1,s3
   10a2a:	f57ff0ef          	jal	ra,10980 <plural_eval>
   10a2e:	405c                	lw	a5,4(s0)
   10a30:	4729                	li	a4,10
   10a32:	84aa                	mv	s1,a0
   10a34:	37f5                	addiw	a5,a5,-3
   10a36:	0007869b          	sext.w	a3,a5
   10a3a:	fed761e3          	bltu	a4,a3,10a1c <plural_eval+0x9c>
   10a3e:	1782                	slli	a5,a5,0x20
   10a40:	0004c737          	lui	a4,0x4c
   10a44:	83f9                	srli	a5,a5,0x1e
   10a46:	2b470713          	addi	a4,a4,692 # 4c2b4 <errstr.10284+0x14>
   10a4a:	97ba                	add	a5,a5,a4
   10a4c:	439c                	lw	a5,0(a5)
   10a4e:	8782                	jr	a5
   10a50:	40a90933          	sub	s2,s2,a0
   10a54:	00193913          	seqz	s2,s2
   10a58:	bfa5                	j	109d0 <plural_eval+0x50>
   10a5a:	00a93933          	sltu	s2,s2,a0
   10a5e:	00194913          	xori	s2,s2,1
   10a62:	1902                	slli	s2,s2,0x20
   10a64:	02095913          	srli	s2,s2,0x20
   10a68:	b7a5                	j	109d0 <plural_eval+0x50>
   10a6a:	01253933          	sltu	s2,a0,s2
   10a6e:	00194913          	xori	s2,s2,1
   10a72:	1902                	slli	s2,s2,0x20
   10a74:	02095913          	srli	s2,s2,0x20
   10a78:	bfa1                	j	109d0 <plural_eval+0x50>
   10a7a:	01253933          	sltu	s2,a0,s2
   10a7e:	bf89                	j	109d0 <plural_eval+0x50>
   10a80:	00a93933          	sltu	s2,s2,a0
   10a84:	b7b1                	j	109d0 <plural_eval+0x50>
   10a86:	40a90933          	sub	s2,s2,a0
   10a8a:	b799                	j	109d0 <plural_eval+0x50>
   10a8c:	992a                	add	s2,s2,a0
   10a8e:	b789                	j	109d0 <plural_eval+0x50>
   10a90:	c105                	beqz	a0,10ab0 <plural_eval+0x130>
   10a92:	02997933          	remu	s2,s2,s1
   10a96:	bf2d                	j	109d0 <plural_eval+0x50>
   10a98:	c115                	beqz	a0,10abc <plural_eval+0x13c>
   10a9a:	02995933          	divu	s2,s2,s1
   10a9e:	bf0d                	j	109d0 <plural_eval+0x50>
   10aa0:	02a90933          	mul	s2,s2,a0
   10aa4:	b735                	j	109d0 <plural_eval+0x50>
   10aa6:	40a90933          	sub	s2,s2,a0
   10aaa:	01203933          	snez	s2,s2
   10aae:	b70d                	j	109d0 <plural_eval+0x50>
   10ab0:	4521                	li	a0,8
   10ab2:	586030ef          	jal	ra,14038 <raise>
   10ab6:	02997933          	remu	s2,s2,s1
   10aba:	bf19                	j	109d0 <plural_eval+0x50>
   10abc:	4521                	li	a0,8
   10abe:	57a030ef          	jal	ra,14038 <raise>
   10ac2:	02995933          	divu	s2,s2,s1
   10ac6:	b729                	j	109d0 <plural_eval+0x50>

0000000000010ac8 <transcmp>:
   10ac8:	711c                	ld	a5,32(a0)
   10aca:	1101                	addi	sp,sp,-32
   10acc:	e822                	sd	s0,16(sp)
   10ace:	e426                	sd	s1,8(sp)
   10ad0:	ec06                	sd	ra,24(sp)
   10ad2:	84aa                	mv	s1,a0
   10ad4:	842e                	mv	s0,a1
   10ad6:	03850513          	addi	a0,a0,56
   10ada:	cf85                	beqz	a5,10b12 <transcmp+0x4a>
   10adc:	701c                	ld	a5,32(s0)
   10ade:	03840593          	addi	a1,s0,56
   10ae2:	c795                	beqz	a5,10b0e <transcmp+0x46>
   10ae4:	19e0e0ef          	jal	ra,1ec82 <strcmp>
   10ae8:	ed11                	bnez	a0,10b04 <transcmp+0x3c>
   10aea:	600c                	ld	a1,0(s0)
   10aec:	6088                	ld	a0,0(s1)
   10aee:	1940e0ef          	jal	ra,1ec82 <strcmp>
   10af2:	e909                	bnez	a0,10b04 <transcmp+0x3c>
   10af4:	680c                	ld	a1,16(s0)
   10af6:	6888                	ld	a0,16(s1)
   10af8:	18a0e0ef          	jal	ra,1ec82 <strcmp>
   10afc:	e501                	bnez	a0,10b04 <transcmp+0x3c>
   10afe:	4488                	lw	a0,8(s1)
   10b00:	441c                	lw	a5,8(s0)
   10b02:	9d1d                	subw	a0,a0,a5
   10b04:	60e2                	ld	ra,24(sp)
   10b06:	6442                	ld	s0,16(sp)
   10b08:	64a2                	ld	s1,8(sp)
   10b0a:	6105                	addi	sp,sp,32
   10b0c:	8082                	ret
   10b0e:	7c0c                	ld	a1,56(s0)
   10b10:	bfd1                	j	10ae4 <transcmp+0x1c>
   10b12:	7c88                	ld	a0,56(s1)
   10b14:	b7e1                	j	10adc <transcmp+0x14>

0000000000010b16 <plural_lookup.isra.2>:
   10b16:	7179                	addi	sp,sp,-48
   10b18:	e84a                	sd	s2,16(sp)
   10b1a:	892a                	mv	s2,a0
   10b1c:	7d48                	ld	a0,184(a0)
   10b1e:	ec26                	sd	s1,24(sp)
   10b20:	e44e                	sd	s3,8(sp)
   10b22:	f406                	sd	ra,40(sp)
   10b24:	f022                	sd	s0,32(sp)
   10b26:	89b2                	mv	s3,a2
   10b28:	84b6                	mv	s1,a3
   10b2a:	e57ff0ef          	jal	ra,10980 <plural_eval>
   10b2e:	0c093783          	ld	a5,192(s2)
   10b32:	02f57163          	bleu	a5,a0,10b54 <plural_lookup.isra.2+0x3e>
   10b36:	842a                	mv	s0,a0
   10b38:	87ce                	mv	a5,s3
   10b3a:	597d                	li	s2,-1
   10b3c:	94ce                	add	s1,s1,s3
   10b3e:	147d                	addi	s0,s0,-1
   10b40:	853e                	mv	a0,a5
   10b42:	4581                	li	a1,0
   10b44:	03240063          	beq	s0,s2,10b64 <plural_lookup.isra.2+0x4e>
   10b48:	58c0f0ef          	jal	ra,200d4 <__rawmemchr>
   10b4c:	00150793          	addi	a5,a0,1
   10b50:	fe97e7e3          	bltu	a5,s1,10b3e <plural_lookup.isra.2+0x28>
   10b54:	70a2                	ld	ra,40(sp)
   10b56:	7402                	ld	s0,32(sp)
   10b58:	854e                	mv	a0,s3
   10b5a:	64e2                	ld	s1,24(sp)
   10b5c:	6942                	ld	s2,16(sp)
   10b5e:	69a2                	ld	s3,8(sp)
   10b60:	6145                	addi	sp,sp,48
   10b62:	8082                	ret
   10b64:	89be                	mv	s3,a5
   10b66:	b7fd                	j	10b54 <plural_lookup.isra.2+0x3e>

0000000000010b68 <_nl_find_msg>:
   10b68:	7131                	addi	sp,sp,-192
   10b6a:	f922                	sd	s0,176(sp)
   10b6c:	f526                	sd	s1,168(sp)
   10b6e:	0180                	addi	s0,sp,192
   10b70:	f8e2                	sd	s8,112(sp)
   10b72:	fd06                	sd	ra,184(sp)
   10b74:	f14a                	sd	s2,160(sp)
   10b76:	ed4e                	sd	s3,152(sp)
   10b78:	e952                	sd	s4,144(sp)
   10b7a:	e556                	sd	s5,136(sp)
   10b7c:	e15a                	sd	s6,128(sp)
   10b7e:	fcde                	sd	s7,120(sp)
   10b80:	f4e6                	sd	s9,104(sp)
   10b82:	f0ea                	sd	s10,96(sp)
   10b84:	ecee                	sd	s11,88(sp)
   10b86:	0006b7b7          	lui	a5,0x6b
   10b8a:	ba07b803          	ld	a6,-1120(a5) # 6aba0 <__fini_array_end>
   10b8e:	451c                	lw	a5,8(a0)
   10b90:	f4b43023          	sd	a1,-192(s0)
   10b94:	f9043423          	sd	a6,-120(s0)
   10b98:	f4d43823          	sd	a3,-176(s0)
   10b9c:	f4e43423          	sd	a4,-184(s0)
   10ba0:	8c2a                	mv	s8,a0
   10ba2:	84b2                	mv	s1,a2
   10ba4:	28f05b63          	blez	a5,10e3a <_nl_find_msg+0x2d2>
   10ba8:	010c3d83          	ld	s11,16(s8)
   10bac:	1e0d8463          	beqz	s11,10d94 <_nl_find_msg+0x22c>
   10bb0:	060db783          	ld	a5,96(s11)
   10bb4:	028da903          	lw	s2,40(s11)
   10bb8:	22078563          	beqz	a5,10de2 <_nl_find_msg+0x27a>
   10bbc:	8526                	mv	a0,s1
   10bbe:	25a0e0ef          	jal	ra,1ee18 <strlen>
   10bc2:	8b2a                	mv	s6,a0
   10bc4:	8526                	mv	a0,s1
   10bc6:	3a0030ef          	jal	ra,13f66 <__hash_string>
   10bca:	058da783          	lw	a5,88(s11)
   10bce:	2501                	sext.w	a0,a0
   10bd0:	068daa83          	lw	s5,104(s11)
   10bd4:	ffe7899b          	addiw	s3,a5,-2
   10bd8:	02f57cbb          	remuw	s9,a0,a5
   10bdc:	060dba03          	ld	s4,96(s11)
   10be0:	000b071b          	sext.w	a4,s6
   10be4:	1b02                	slli	s6,s6,0x20
   10be6:	f6e43423          	sd	a4,-152(s0)
   10bea:	020b5b13          	srli	s6,s6,0x20
   10bee:	0335753b          	remuw	a0,a0,s3
   10bf2:	0015099b          	addiw	s3,a0,1
   10bf6:	41378bbb          	subw	s7,a5,s3
   10bfa:	40f987bb          	subw	a5,s3,a5
   10bfe:	f6f42023          	sw	a5,-160(s0)
   10c02:	020c9793          	slli	a5,s9,0x20
   10c06:	83f9                	srli	a5,a5,0x1e
   10c08:	97d2                	add	a5,a5,s4
   10c0a:	4388                	lw	a0,0(a5)
   10c0c:	000a8563          	beqz	s5,10c16 <_nl_find_msg+0xae>
   10c10:	215360ef          	jal	ra,47624 <__bswapsi2>
   10c14:	2501                	sext.w	a0,a0
   10c16:	16050f63          	beqz	a0,10d94 <_nl_find_msg+0x22c>
   10c1a:	357d                	addiw	a0,a0,-1
   10c1c:	00050d1b          	sext.w	s10,a0
   10c20:	032d7f63          	bleu	s2,s10,10c5e <_nl_find_msg+0xf6>
   10c24:	030db783          	ld	a5,48(s11)
   10c28:	1502                	slli	a0,a0,0x20
   10c2a:	9101                	srli	a0,a0,0x20
   10c2c:	018da603          	lw	a2,24(s11)
   10c30:	050e                	slli	a0,a0,0x3
   10c32:	97aa                	add	a5,a5,a0
   10c34:	4388                	lw	a0,0(a5)
   10c36:	12060d63          	beqz	a2,10d70 <_nl_find_msg+0x208>
   10c3a:	f4f43c23          	sd	a5,-168(s0)
   10c3e:	1e7360ef          	jal	ra,47624 <__bswapsi2>
   10c42:	f6843703          	ld	a4,-152(s0)
   10c46:	2501                	sext.w	a0,a0
   10c48:	f5843783          	ld	a5,-168(s0)
   10c4c:	16e57f63          	bleu	a4,a0,10dca <_nl_find_msg+0x262>
   10c50:	117ced63          	bltu	s9,s7,10d6a <_nl_find_msg+0x202>
   10c54:	f6042783          	lw	a5,-160(s0)
   10c58:	01978cbb          	addw	s9,a5,s9
   10c5c:	b75d                	j	10c02 <_nl_find_msg+0x9a>
   10c5e:	048db783          	ld	a5,72(s11)
   10c62:	4125053b          	subw	a0,a0,s2
   10c66:	1502                	slli	a0,a0,0x20
   10c68:	8171                	srli	a0,a0,0x1c
   10c6a:	953e                	add	a0,a0,a5
   10c6c:	611c                	ld	a5,0(a0)
   10c6e:	fefb71e3          	bleu	a5,s6,10c50 <_nl_find_msg+0xe8>
   10c72:	650c                	ld	a1,8(a0)
   10c74:	8526                	mv	a0,s1
   10c76:	00c0e0ef          	jal	ra,1ec82 <strcmp>
   10c7a:	f979                	bnez	a0,10c50 <_nl_find_msg+0xe8>
   10c7c:	02091793          	slli	a5,s2,0x20
   10c80:	020d1993          	slli	s3,s10,0x20
   10c84:	9381                	srli	a5,a5,0x20
   10c86:	0209d993          	srli	s3,s3,0x20
   10c8a:	8cbe                	mv	s9,a5
   10c8c:	1b99fa63          	bleu	s9,s3,10e40 <_nl_find_msg+0x2d8>
   10c90:	038db783          	ld	a5,56(s11)
   10c94:	018da703          	lw	a4,24(s11)
   10c98:	00399693          	slli	a3,s3,0x3
   10c9c:	97b6                	add	a5,a5,a3
   10c9e:	000db483          	ld	s1,0(s11)
   10ca2:	43c8                	lw	a0,4(a5)
   10ca4:	0007aa03          	lw	s4,0(a5)
   10ca8:	1a070e63          	beqz	a4,10e64 <_nl_find_msg+0x2fc>
   10cac:	179360ef          	jal	ra,47624 <__bswapsi2>
   10cb0:	02051793          	slli	a5,a0,0x20
   10cb4:	9381                	srli	a5,a5,0x20
   10cb6:	8552                	mv	a0,s4
   10cb8:	94be                	add	s1,s1,a5
   10cba:	16b360ef          	jal	ra,47624 <__bswapsi2>
   10cbe:	f5043783          	ld	a5,-176(s0)
   10cc2:	2505                	addiw	a0,a0,1
   10cc4:	02051a13          	slli	s4,a0,0x20
   10cc8:	020a5a13          	srli	s4,s4,0x20
   10ccc:	18078763          	beqz	a5,10e5a <_nl_find_msg+0x2f2>
   10cd0:	f4043783          	ld	a5,-192(s0)
   10cd4:	1a078063          	beqz	a5,10e74 <_nl_find_msg+0x30c>
   10cd8:	0107bb03          	ld	s6,16(a5)
   10cdc:	180b0c63          	beqz	s6,10e74 <_nl_find_msg+0x30c>
   10ce0:	000007b7          	lui	a5,0x0
   10ce4:	00078793          	mv	a5,a5
   10ce8:	c799                	beqz	a5,10cf6 <_nl_find_msg+0x18e>
   10cea:	080d8513          	addi	a0,s11,128
   10cee:	fffef097          	auipc	ra,0xfffef
   10cf2:	312080e7          	jalr	786(ra) # 0 <_nl_current_LC_CTYPE>
   10cf6:	078dbd03          	ld	s10,120(s11)
   10cfa:	180d0a63          	beqz	s10,10e8e <_nl_find_msg+0x326>
   10cfe:	001d1793          	slli	a5,s10,0x1
   10d02:	97ea                	add	a5,a5,s10
   10d04:	070dbb83          	ld	s7,112(s11)
   10d08:	078e                	slli	a5,a5,0x3
   10d0a:	17a1                	addi	a5,a5,-24
   10d0c:	9bbe                	add	s7,s7,a5
   10d0e:	a021                	j	10d16 <_nl_find_msg+0x1ae>
   10d10:	1ba1                	addi	s7,s7,-24
   10d12:	160d0e63          	beqz	s10,10e8e <_nl_find_msg+0x326>
   10d16:	000bb503          	ld	a0,0(s7)
   10d1a:	85da                	mv	a1,s6
   10d1c:	1d7d                	addi	s10,s10,-1
   10d1e:	8ade                	mv	s5,s7
   10d20:	7630d0ef          	jal	ra,1ec82 <strcmp>
   10d24:	f575                	bnez	a0,10d10 <_nl_find_msg+0x1a8>
   10d26:	000007b7          	lui	a5,0x0
   10d2a:	00078793          	mv	a5,a5
   10d2e:	c799                	beqz	a5,10d3c <_nl_find_msg+0x1d4>
   10d30:	080d8513          	addi	a0,s11,128
   10d34:	fffef097          	auipc	ra,0xfffef
   10d38:	2cc080e7          	jalr	716(ra) # 0 <_nl_current_LC_CTYPE>
   10d3c:	008ab703          	ld	a4,8(s5)
   10d40:	57fd                	li	a5,-1
   10d42:	10f70c63          	beq	a4,a5,10e5a <_nl_find_msg+0x2f2>
   10d46:	010ab783          	ld	a5,16(s5)
   10d4a:	48078b63          	beqz	a5,111e0 <_nl_find_msg+0x678>
   10d4e:	577d                	li	a4,-1
   10d50:	48e78663          	beq	a5,a4,111dc <_nl_find_msg+0x674>
   10d54:	00399713          	slli	a4,s3,0x3
   10d58:	97ba                	add	a5,a5,a4
   10d5a:	639c                	ld	a5,0(a5)
   10d5c:	1c078363          	beqz	a5,10f22 <_nl_find_msg+0x3ba>
   10d60:	0007ba03          	ld	s4,0(a5) # 0 <_nl_current_LC_CTYPE>
   10d64:	00878493          	addi	s1,a5,8
   10d68:	a8cd                	j	10e5a <_nl_find_msg+0x2f2>
   10d6a:	013c8cbb          	addw	s9,s9,s3
   10d6e:	bd51                	j	10c02 <_nl_find_msg+0x9a>
   10d70:	f6843703          	ld	a4,-152(s0)
   10d74:	ece56ee3          	bltu	a0,a4,10c50 <_nl_find_msg+0xe8>
   10d78:	000db583          	ld	a1,0(s11)
   10d7c:	0047e503          	lwu	a0,4(a5)
   10d80:	95aa                	add	a1,a1,a0
   10d82:	8526                	mv	a0,s1
   10d84:	6ff0d0ef          	jal	ra,1ec82 <strcmp>
   10d88:	ec0514e3          	bnez	a0,10c50 <_nl_find_msg+0xe8>
   10d8c:	bdc5                	j	10c7c <_nl_find_msg+0x114>
   10d8e:	8ace                	mv	s5,s3
   10d90:	073a6763          	bltu	s4,s3,10dfe <_nl_find_msg+0x296>
   10d94:	4481                	li	s1,0
   10d96:	0006b7b7          	lui	a5,0x6b
   10d9a:	f8843703          	ld	a4,-120(s0)
   10d9e:	ba07b783          	ld	a5,-1120(a5) # 6aba0 <__fini_array_end>
   10da2:	8526                	mv	a0,s1
   10da4:	5ef71c63          	bne	a4,a5,1139c <_nl_find_msg+0x834>
   10da8:	f4040113          	addi	sp,s0,-192
   10dac:	70ea                	ld	ra,184(sp)
   10dae:	744a                	ld	s0,176(sp)
   10db0:	74aa                	ld	s1,168(sp)
   10db2:	790a                	ld	s2,160(sp)
   10db4:	69ea                	ld	s3,152(sp)
   10db6:	6a4a                	ld	s4,144(sp)
   10db8:	6aaa                	ld	s5,136(sp)
   10dba:	6b0a                	ld	s6,128(sp)
   10dbc:	7be6                	ld	s7,120(sp)
   10dbe:	7c46                	ld	s8,112(sp)
   10dc0:	7ca6                	ld	s9,104(sp)
   10dc2:	7d06                	ld	s10,96(sp)
   10dc4:	6de6                	ld	s11,88(sp)
   10dc6:	6129                	addi	sp,sp,192
   10dc8:	8082                	ret
   10dca:	000db583          	ld	a1,0(s11)
   10dce:	43c8                	lw	a0,4(a5)
   10dd0:	f4b43c23          	sd	a1,-168(s0)
   10dd4:	051360ef          	jal	ra,47624 <__bswapsi2>
   10dd8:	1502                	slli	a0,a0,0x20
   10dda:	9101                	srli	a0,a0,0x20
   10ddc:	f5843583          	ld	a1,-168(s0)
   10de0:	b745                	j	10d80 <_nl_find_msg+0x218>
   10de2:	02091793          	slli	a5,s2,0x20
   10de6:	9381                	srli	a5,a5,0x20
   10de8:	8cbe                	mv	s9,a5
   10dea:	8abe                	mv	s5,a5
   10dec:	4a01                	li	s4,0
   10dee:	fb5a73e3          	bleu	s5,s4,10d94 <_nl_find_msg+0x22c>
   10df2:	000dbd03          	ld	s10,0(s11)
   10df6:	018dab83          	lw	s7,24(s11)
   10dfa:	030dbb03          	ld	s6,48(s11)
   10dfe:	015a09b3          	add	s3,s4,s5
   10e02:	0019d993          	srli	s3,s3,0x1
   10e06:	00399793          	slli	a5,s3,0x3
   10e0a:	97da                	add	a5,a5,s6
   10e0c:	43c8                	lw	a0,4(a5)
   10e0e:	020b8263          	beqz	s7,10e32 <_nl_find_msg+0x2ca>
   10e12:	013360ef          	jal	ra,47624 <__bswapsi2>
   10e16:	02051593          	slli	a1,a0,0x20
   10e1a:	9181                	srli	a1,a1,0x20
   10e1c:	95ea                	add	a1,a1,s10
   10e1e:	8526                	mv	a0,s1
   10e20:	6630d0ef          	jal	ra,1ec82 <strcmp>
   10e24:	f60545e3          	bltz	a0,10d8e <_nl_find_msg+0x226>
   10e28:	e60502e3          	beqz	a0,10c8c <_nl_find_msg+0x124>
   10e2c:	00198a13          	addi	s4,s3,1
   10e30:	bf7d                	j	10dee <_nl_find_msg+0x286>
   10e32:	02051593          	slli	a1,a0,0x20
   10e36:	9181                	srli	a1,a1,0x20
   10e38:	b7d5                	j	10e1c <_nl_find_msg+0x2b4>
   10e3a:	4a7000ef          	jal	ra,11ae0 <_nl_load_domain>
   10e3e:	b3ad                	j	10ba8 <_nl_find_msg+0x40>
   10e40:	050db703          	ld	a4,80(s11)
   10e44:	419987b3          	sub	a5,s3,s9
   10e48:	0792                	slli	a5,a5,0x4
   10e4a:	97ba                	add	a5,a5,a4
   10e4c:	6784                	ld	s1,8(a5)
   10e4e:	0007ba03          	ld	s4,0(a5)
   10e52:	f5043783          	ld	a5,-176(s0)
   10e56:	e6079de3          	bnez	a5,10cd0 <_nl_find_msg+0x168>
   10e5a:	f4843783          	ld	a5,-184(s0)
   10e5e:	0147b023          	sd	s4,0(a5)
   10e62:	bf15                	j	10d96 <_nl_find_msg+0x22e>
   10e64:	1502                	slli	a0,a0,0x20
   10e66:	2a05                	addiw	s4,s4,1
   10e68:	9101                	srli	a0,a0,0x20
   10e6a:	1a02                	slli	s4,s4,0x20
   10e6c:	94aa                	add	s1,s1,a0
   10e6e:	020a5a13          	srli	s4,s4,0x20
   10e72:	b7c5                	j	10e52 <_nl_find_msg+0x2ea>
   10e74:	9c81a783          	lw	a5,-1592(gp) # 6cad0 <output_charset_cached.10295>
   10e78:	c3d9                	beqz	a5,10efe <_nl_find_msg+0x396>
   10e7a:	9c01bb03          	ld	s6,-1600(gp) # 6cac8 <_edata>
   10e7e:	e60b11e3          	bnez	s6,10ce0 <_nl_find_msg+0x178>
   10e82:	00023783          	ld	a5,0(tp) # 0 <_nl_current_LC_CTYPE>
   10e86:	639c                	ld	a5,0(a5)
   10e88:	0b07bb03          	ld	s6,176(a5)
   10e8c:	bd91                	j	10ce0 <_nl_find_msg+0x178>
   10e8e:	00000d37          	lui	s10,0x0
   10e92:	000d0c93          	mv	s9,s10
   10e96:	040c9d63          	bnez	s9,10ef0 <_nl_find_msg+0x388>
   10e9a:	000007b7          	lui	a5,0x0
   10e9e:	00078793          	mv	a5,a5
   10ea2:	c799                	beqz	a5,10eb0 <_nl_find_msg+0x348>
   10ea4:	080d8513          	addi	a0,s11,128
   10ea8:	fffef097          	auipc	ra,0xfffef
   10eac:	158080e7          	jalr	344(ra) # 0 <_nl_current_LC_CTYPE>
   10eb0:	078dbd03          	ld	s10,120(s11)
   10eb4:	070db703          	ld	a4,112(s11)
   10eb8:	f7a43423          	sd	s10,-152(s0)
   10ebc:	f6e43023          	sd	a4,-160(s0)
   10ec0:	140d0663          	beqz	s10,1100c <_nl_find_msg+0x4a4>
   10ec4:	001d1793          	slli	a5,s10,0x1
   10ec8:	97ea                	add	a5,a5,s10
   10eca:	078e                	slli	a5,a5,0x3
   10ecc:	17a1                	addi	a5,a5,-24
   10ece:	00f70bb3          	add	s7,a4,a5
   10ed2:	a021                	j	10eda <_nl_find_msg+0x372>
   10ed4:	1ba1                	addi	s7,s7,-24
   10ed6:	120d0b63          	beqz	s10,1100c <_nl_find_msg+0x4a4>
   10eda:	000bb503          	ld	a0,0(s7)
   10ede:	85da                	mv	a1,s6
   10ee0:	1d7d                	addi	s10,s10,-1
   10ee2:	8ade                	mv	s5,s7
   10ee4:	59f0d0ef          	jal	ra,1ec82 <strcmp>
   10ee8:	f575                	bnez	a0,10ed4 <_nl_find_msg+0x36c>
   10eea:	e40c93e3          	bnez	s9,10d30 <_nl_find_msg+0x1c8>
   10eee:	b5b9                	j	10d3c <_nl_find_msg+0x1d4>
   10ef0:	080d8513          	addi	a0,s11,128
   10ef4:	fffef097          	auipc	ra,0xfffef
   10ef8:	10c080e7          	jalr	268(ra) # 0 <_nl_current_LC_CTYPE>
   10efc:	bf79                	j	10e9a <_nl_find_msg+0x332>
   10efe:	0004c537          	lui	a0,0x4c
   10f02:	2e050513          	addi	a0,a0,736 # 4c2e0 <errstr.10284+0x40>
   10f06:	03f030ef          	jal	ra,14744 <getenv>
   10f0a:	8baa                	mv	s7,a0
   10f0c:	c509                	beqz	a0,10f16 <_nl_find_msg+0x3ae>
   10f0e:	00054783          	lbu	a5,0(a0)
   10f12:	32079d63          	bnez	a5,1124c <_nl_find_msg+0x6e4>
   10f16:	9c01bb03          	ld	s6,-1600(gp) # 6cac8 <_edata>
   10f1a:	4785                	li	a5,1
   10f1c:	9cf1a423          	sw	a5,-1592(gp) # 6cad0 <output_charset_cached.10295>
   10f20:	bfb9                	j	10e7e <_nl_find_msg+0x316>
   10f22:	f6f43423          	sd	a5,-152(s0)
   10f26:	4705                	li	a4,1
   10f28:	9e018693          	addi	a3,gp,-1568 # 6cae8 <lock.10171>
   10f2c:	1006a7af          	lr.w	a5,(a3)
   10f30:	00079563          	bnez	a5,10f3a <_nl_find_msg+0x3d2>
   10f34:	1ce6a62f          	sc.w.aq	a2,a4,(a3)
   10f38:	fa75                	bnez	a2,10f2c <_nl_find_msg+0x3c4>
   10f3a:	2781                	sext.w	a5,a5
   10f3c:	3c079163          	bnez	a5,112fe <_nl_find_msg+0x796>
   10f40:	9d81b783          	ld	a5,-1576(gp) # 6cae0 <freemem.10201>
   10f44:	6685                	lui	a3,0x1
   10f46:	07a1                	addi	a5,a5,8
   10f48:	9d01b703          	ld	a4,-1584(gp) # 6cad8 <freemem_size.10202>
   10f4c:	f6f43c23          	sd	a5,-136(s0)
   10f50:	fe868793          	addi	a5,a3,-24 # fe8 <catch_hook+0xf90>
   10f54:	f6943823          	sd	s1,-144(s0)
   10f58:	4c1d                	li	s8,7
   10f5a:	f6f43023          	sd	a5,-160(s0)
   10f5e:	4d01                	li	s10,0
   10f60:	04ec6463          	bltu	s8,a4,10fa8 <_nl_find_msg+0x440>
   10f64:	060d0f63          	beqz	s10,10fe2 <_nl_find_msg+0x47a>
   10f68:	2d05                	addiw	s10,s10,1
   10f6a:	008d171b          	slliw	a4,s10,0x8
   10f6e:	9e81bd83          	ld	s11,-1560(gp) # 6caf0 <transmem_list>
   10f72:	41a7073b          	subw	a4,a4,s10
   10f76:	00471c9b          	slliw	s9,a4,0x4
   10f7a:	85e6                	mv	a1,s9
   10f7c:	856e                	mv	a0,s11
   10f7e:	9d91b823          	sd	s9,-1584(gp) # 6cad8 <freemem_size.10202>
   10f82:	7790c0ef          	jal	ra,1defa <__libc_realloc>
   10f86:	1e050d63          	beqz	a0,11180 <_nl_find_msg+0x618>
   10f8a:	9ea1b423          	sd	a0,-1560(gp) # 6caf0 <transmem_list>
   10f8e:	ff8c8713          	addi	a4,s9,-8
   10f92:	00850793          	addi	a5,a0,8
   10f96:	0541                	addi	a0,a0,16
   10f98:	9cf1bc23          	sd	a5,-1576(gp) # 6cae0 <freemem.10201>
   10f9c:	9ce1b823          	sd	a4,-1584(gp) # 6cad8 <freemem_size.10202>
   10fa0:	f6a43c23          	sd	a0,-136(s0)
   10fa4:	fcec70e3          	bleu	a4,s8,10f64 <_nl_find_msg+0x3fc>
   10fa8:	f7843683          	ld	a3,-136(s0)
   10fac:	f7043603          	ld	a2,-144(s0)
   10fb0:	008ab503          	ld	a0,8(s5)
   10fb4:	1761                	addi	a4,a4,-8
   10fb6:	f8040793          	addi	a5,s0,-128
   10fba:	9736                	add	a4,a4,a3
   10fbc:	9652                	add	a2,a2,s4
   10fbe:	f7840693          	addi	a3,s0,-136
   10fc2:	f7040593          	addi	a1,s0,-144
   10fc6:	46a120ef          	jal	ra,23430 <__gconv>
   10fca:	ffb57793          	andi	a5,a0,-5
   10fce:	0007889b          	sext.w	a7,a5
   10fd2:	28088d63          	beqz	a7,1126c <_nl_find_msg+0x704>
   10fd6:	4795                	li	a5,5
   10fd8:	32f51a63          	bne	a0,a5,1130c <_nl_find_msg+0x7a4>
   10fdc:	f6943823          	sd	s1,-144(s0)
   10fe0:	b751                	j	10f64 <_nl_find_msg+0x3fc>
   10fe2:	0006d7b7          	lui	a5,0x6d
   10fe6:	9087b503          	ld	a0,-1784(a5) # 6c908 <_GLOBAL_OFFSET_TABLE_+0x28>
   10fea:	6785                	lui	a5,0x1
   10fec:	17c1                	addi	a5,a5,-16
   10fee:	9cf1b823          	sd	a5,-1584(gp) # 6cad8 <freemem_size.10202>
   10ff2:	1ef0c0ef          	jal	ra,1d9e0 <__libc_malloc>
   10ff6:	18050c63          	beqz	a0,1118e <_nl_find_msg+0x626>
   10ffa:	9e81b783          	ld	a5,-1560(gp) # 6caf0 <transmem_list>
   10ffe:	f6043703          	ld	a4,-160(s0)
   11002:	9ea1b423          	sd	a0,-1560(gp) # 6caf0 <transmem_list>
   11006:	e11c                	sd	a5,0(a0)
   11008:	4d05                	li	s10,1
   1100a:	b761                	j	10f92 <_nl_find_msg+0x42a>
   1100c:	f6843783          	ld	a5,-152(s0)
   11010:	f6043503          	ld	a0,-160(s0)
   11014:	00178b93          	addi	s7,a5,1 # 1001 <catch_hook+0xfa9>
   11018:	001b9793          	slli	a5,s7,0x1
   1101c:	9bbe                	add	s7,s7,a5
   1101e:	0b8e                	slli	s7,s7,0x3
   11020:	22050163          	beqz	a0,11242 <_nl_find_msg+0x6da>
   11024:	85de                	mv	a1,s7
   11026:	6d50c0ef          	jal	ra,1defa <__libc_realloc>
   1102a:	8aaa                	mv	s5,a0
   1102c:	1a0a8063          	beqz	s5,111cc <_nl_find_msg+0x664>
   11030:	855a                	mv	a0,s6
   11032:	075db823          	sd	s5,112(s11)
   11036:	5af0d0ef          	jal	ra,1ede4 <__strdup>
   1103a:	8b2a                	mv	s6,a0
   1103c:	18050863          	beqz	a0,111cc <_nl_find_msg+0x664>
   11040:	1ba1                	addi	s7,s7,-24
   11042:	f4043583          	ld	a1,-192(s0)
   11046:	9ade                	add	s5,s5,s7
   11048:	0005d637          	lui	a2,0x5d
   1104c:	5bfd                	li	s7,-1
   1104e:	00aab023          	sd	a0,0(s5)
   11052:	017ab423          	sd	s7,8(s5)
   11056:	f8040713          	addi	a4,s0,-128
   1105a:	4681                	li	a3,0
   1105c:	86060613          	addi	a2,a2,-1952 # 5c860 <step3b_jumps.11844+0x1e0>
   11060:	8562                	mv	a0,s8
   11062:	b07ff0ef          	jal	ra,10b68 <_nl_find_msg>
   11066:	87aa                	mv	a5,a0
   11068:	29750963          	beq	a0,s7,112fa <_nl_find_msg+0x792>
   1106c:	10050063          	beqz	a0,1116c <_nl_find_msg+0x604>
   11070:	0004c5b7          	lui	a1,0x4c
   11074:	2f058593          	addi	a1,a1,752 # 4c2f0 <errstr.10284+0x50>
   11078:	3360e0ef          	jal	ra,1f3ae <strstr>
   1107c:	c965                	beqz	a0,1116c <_nl_find_msg+0x604>
   1107e:	00850c13          	addi	s8,a0,8
   11082:	0004c5b7          	lui	a1,0x4c
   11086:	30058593          	addi	a1,a1,768 # 4c300 <errstr.10284+0x60>
   1108a:	8562                	mv	a0,s8
   1108c:	43b0d0ef          	jal	ra,1ecc6 <strcspn>
   11090:	01f50793          	addi	a5,a0,31
   11094:	9bc1                	andi	a5,a5,-16
   11096:	40f10133          	sub	sp,sp,a5
   1109a:	8b8a                	mv	s7,sp
   1109c:	862a                	mv	a2,a0
   1109e:	85e2                	mv	a1,s8
   110a0:	855e                	mv	a0,s7
   110a2:	3a30e0ef          	jal	ra,1fc44 <__mempcpy>
   110a6:	00050023          	sb	zero,0(a0)
   110aa:	875a                	mv	a4,s6
   110ac:	4681                	li	a3,0
   110ae:	a039                	j	110bc <_nl_find_msg+0x554>
   110b0:	fd178793          	addi	a5,a5,-47
   110b4:	0017b793          	seqz	a5,a5
   110b8:	0705                	addi	a4,a4,1
   110ba:	96be                	add	a3,a3,a5
   110bc:	00074783          	lbu	a5,0(a4)
   110c0:	fbe5                	bnez	a5,110b0 <_nl_find_msg+0x548>
   110c2:	41670733          	sub	a4,a4,s6
   110c6:	02970713          	addi	a4,a4,41
   110ca:	000b4783          	lbu	a5,0(s6)
   110ce:	9b41                	andi	a4,a4,-16
   110d0:	40e10133          	sub	sp,sp,a4
   110d4:	8c0a                	mv	s8,sp
   110d6:	28078763          	beqz	a5,11364 <_nl_find_msg+0x7fc>
   110da:	0005c737          	lui	a4,0x5c
   110de:	ed073583          	ld	a1,-304(a4) # 5bed0 <_nl_C_locobj+0x78>
   110e2:	8562                	mv	a0,s8
   110e4:	875a                	mv	a4,s6
   110e6:	078a                	slli	a5,a5,0x2
   110e8:	97ae                	add	a5,a5,a1
   110ea:	4390                	lw	a2,0(a5)
   110ec:	0705                	addi	a4,a4,1
   110ee:	00074783          	lbu	a5,0(a4)
   110f2:	0505                	addi	a0,a0,1
   110f4:	fec50fa3          	sb	a2,-1(a0)
   110f8:	f7fd                	bnez	a5,110e6 <_nl_find_msg+0x57e>
   110fa:	4785                	li	a5,1
   110fc:	22d7fe63          	bleu	a3,a5,11338 <_nl_find_msg+0x7d0>
   11100:	00050023          	sb	zero,0(a0)
   11104:	875e                	mv	a4,s7
   11106:	4681                	li	a3,0
   11108:	a039                	j	11116 <_nl_find_msg+0x5ae>
   1110a:	fd178793          	addi	a5,a5,-47
   1110e:	0017b793          	seqz	a5,a5
   11112:	0705                	addi	a4,a4,1
   11114:	96be                	add	a3,a3,a5
   11116:	00074783          	lbu	a5,0(a4)
   1111a:	fbe5                	bnez	a5,1110a <_nl_find_msg+0x5a2>
   1111c:	41770733          	sub	a4,a4,s7
   11120:	02170713          	addi	a4,a4,33
   11124:	000bc783          	lbu	a5,0(s7)
   11128:	9b41                	andi	a4,a4,-16
   1112a:	40e10133          	sub	sp,sp,a4
   1112e:	858a                	mv	a1,sp
   11130:	22078c63          	beqz	a5,11368 <_nl_find_msg+0x800>
   11134:	0005c737          	lui	a4,0x5c
   11138:	ed073503          	ld	a0,-304(a4) # 5bed0 <_nl_C_locobj+0x78>
   1113c:	872e                	mv	a4,a1
   1113e:	078a                	slli	a5,a5,0x2
   11140:	97aa                	add	a5,a5,a0
   11142:	4390                	lw	a2,0(a5)
   11144:	0b85                	addi	s7,s7,1
   11146:	000bc783          	lbu	a5,0(s7)
   1114a:	0705                	addi	a4,a4,1
   1114c:	fec70fa3          	sb	a2,-1(a4)
   11150:	f7fd                	bnez	a5,1113e <_nl_find_msg+0x5d6>
   11152:	4785                	li	a5,1
   11154:	1cd7fb63          	bleu	a3,a5,1132a <_nl_find_msg+0x7c2>
   11158:	4685                	li	a3,1
   1115a:	008a8613          	addi	a2,s5,8
   1115e:	8562                	mv	a0,s8
   11160:	00070023          	sb	zero,0(a4)
   11164:	787110ef          	jal	ra,230ea <__gconv_open>
   11168:	16051a63          	bnez	a0,112dc <_nl_find_msg+0x774>
   1116c:	078db783          	ld	a5,120(s11)
   11170:	000ab823          	sd	zero,16(s5)
   11174:	0785                	addi	a5,a5,1
   11176:	06fdbc23          	sd	a5,120(s11)
   1117a:	ba0c9be3          	bnez	s9,10d30 <_nl_find_msg+0x1c8>
   1117e:	be7d                	j	10d3c <_nl_find_msg+0x1d4>
   11180:	000db703          	ld	a4,0(s11)
   11184:	856e                	mv	a0,s11
   11186:	9ee1b423          	sd	a4,-1560(gp) # 6caf0 <transmem_list>
   1118a:	4cf0c0ef          	jal	ra,1de58 <__free>
   1118e:	f6843703          	ld	a4,-152(s0)
   11192:	9c01bc23          	sd	zero,-1576(gp) # 6cae0 <freemem.10201>
   11196:	9c01b823          	sd	zero,-1584(gp) # 6cad8 <freemem_size.10202>
   1119a:	4781                	li	a5,0
   1119c:	9e018713          	addi	a4,gp,-1568 # 6cae8 <lock.10171>
   111a0:	0f50000f          	fence	iorw,ow
   111a4:	08f727af          	amoswap.w	a5,a5,(a4)
   111a8:	2781                	sext.w	a5,a5
   111aa:	4705                	li	a4,1
   111ac:	54fd                	li	s1,-1
   111ae:	bef754e3          	ble	a5,a4,10d96 <_nl_find_msg+0x22e>
   111b2:	f6843783          	ld	a5,-152(s0)
   111b6:	06200893          	li	a7,98
   111ba:	08100593          	li	a1,129
   111be:	9e018513          	addi	a0,gp,-1568 # 6cae8 <lock.10171>
   111c2:	4605                	li	a2,1
   111c4:	4681                	li	a3,0
   111c6:	00000073          	ecall
   111ca:	b6f1                	j	10d96 <_nl_find_msg+0x22e>
   111cc:	000c8863          	beqz	s9,111dc <_nl_find_msg+0x674>
   111d0:	080d8513          	addi	a0,s11,128
   111d4:	fffef097          	auipc	ra,0xfffef
   111d8:	e2c080e7          	jalr	-468(ra) # 0 <_nl_current_LC_CTYPE>
   111dc:	54fd                	li	s1,-1
   111de:	be65                	j	10d96 <_nl_find_msg+0x22e>
   111e0:	f6f43423          	sd	a5,-152(s0)
   111e4:	4705                	li	a4,1
   111e6:	9e018693          	addi	a3,gp,-1568 # 6cae8 <lock.10171>
   111ea:	1006a7af          	lr.w	a5,(a3)
   111ee:	00079563          	bnez	a5,111f8 <_nl_find_msg+0x690>
   111f2:	1ce6a62f          	sc.w.aq	a2,a4,(a3)
   111f6:	fa75                	bnez	a2,111ea <_nl_find_msg+0x682>
   111f8:	2781                	sext.w	a5,a5
   111fa:	14079e63          	bnez	a5,11356 <_nl_find_msg+0x7ee>
   111fe:	010ab783          	ld	a5,16(s5)
   11202:	c3e1                	beqz	a5,112c2 <_nl_find_msg+0x75a>
   11204:	f6843703          	ld	a4,-152(s0)
   11208:	4781                	li	a5,0
   1120a:	9e018713          	addi	a4,gp,-1568 # 6cae8 <lock.10171>
   1120e:	0f50000f          	fence	iorw,ow
   11212:	08f727af          	amoswap.w	a5,a5,(a4)
   11216:	2781                	sext.w	a5,a5
   11218:	4705                	li	a4,1
   1121a:	00f74563          	blt	a4,a5,11224 <_nl_find_msg+0x6bc>
   1121e:	010ab783          	ld	a5,16(s5)
   11222:	b635                	j	10d4e <_nl_find_msg+0x1e6>
   11224:	f6843783          	ld	a5,-152(s0)
   11228:	06200893          	li	a7,98
   1122c:	08100593          	li	a1,129
   11230:	9e018513          	addi	a0,gp,-1568 # 6cae8 <lock.10171>
   11234:	4605                	li	a2,1
   11236:	4681                	li	a3,0
   11238:	00000073          	ecall
   1123c:	010ab783          	ld	a5,16(s5)
   11240:	b639                	j	10d4e <_nl_find_msg+0x1e6>
   11242:	855e                	mv	a0,s7
   11244:	79c0c0ef          	jal	ra,1d9e0 <__libc_malloc>
   11248:	8aaa                	mv	s5,a0
   1124a:	b3cd                	j	1102c <_nl_find_msg+0x4c4>
   1124c:	3cd0d0ef          	jal	ra,1ee18 <strlen>
   11250:	00150d13          	addi	s10,a0,1
   11254:	856a                	mv	a0,s10
   11256:	78a0c0ef          	jal	ra,1d9e0 <__libc_malloc>
   1125a:	8b2a                	mv	s6,a0
   1125c:	c509                	beqz	a0,11266 <_nl_find_msg+0x6fe>
   1125e:	866a                	mv	a2,s10
   11260:	85de                	mv	a1,s7
   11262:	2590e0ef          	jal	ra,1fcba <memcpy>
   11266:	9d61b023          	sd	s6,-1600(gp) # 6cac8 <_edata>
   1126a:	b945                	j	10f1a <_nl_find_msg+0x3b2>
   1126c:	f7843683          	ld	a3,-136(s0)
   11270:	9d81b503          	ld	a0,-1576(gp) # 6cae0 <freemem.10201>
   11274:	9d01b703          	ld	a4,-1584(gp) # 6cad8 <freemem_size.10202>
   11278:	010ab583          	ld	a1,16(s5)
   1127c:	40a68633          	sub	a2,a3,a0
   11280:	8f11                	sub	a4,a4,a2
   11282:	f6843783          	ld	a5,-152(s0)
   11286:	00777813          	andi	a6,a4,7
   1128a:	1661                	addi	a2,a2,-8
   1128c:	098e                	slli	s3,s3,0x3
   1128e:	e110                	sd	a2,0(a0)
   11290:	96c2                	add	a3,a3,a6
   11292:	01358633          	add	a2,a1,s3
   11296:	9b61                	andi	a4,a4,-8
   11298:	9ce1b823          	sd	a4,-1584(gp) # 6cad8 <freemem_size.10202>
   1129c:	e208                	sd	a0,0(a2)
   1129e:	9e018713          	addi	a4,gp,-1568 # 6cae8 <lock.10171>
   112a2:	9cd1bc23          	sd	a3,-1576(gp) # 6cae0 <freemem.10201>
   112a6:	87c6                	mv	a5,a7
   112a8:	0f50000f          	fence	iorw,ow
   112ac:	08f727af          	amoswap.w	a5,a5,(a4)
   112b0:	2781                	sext.w	a5,a5
   112b2:	4705                	li	a4,1
   112b4:	0cf74763          	blt	a4,a5,11382 <_nl_find_msg+0x81a>
   112b8:	010ab783          	ld	a5,16(s5)
   112bc:	97ce                	add	a5,a5,s3
   112be:	639c                	ld	a5,0(a5)
   112c0:	b445                	j	10d60 <_nl_find_msg+0x1f8>
   112c2:	040da503          	lw	a0,64(s11)
   112c6:	45a1                	li	a1,8
   112c8:	0125053b          	addw	a0,a0,s2
   112cc:	1502                	slli	a0,a0,0x20
   112ce:	9101                	srli	a0,a0,0x20
   112d0:	7390c0ef          	jal	ra,1e208 <__calloc>
   112d4:	cd2d                	beqz	a0,1134e <_nl_find_msg+0x7e6>
   112d6:	00aab823          	sd	a0,16(s5)
   112da:	b19d                	j	10f40 <_nl_find_msg+0x3d8>
   112dc:	57fd                	li	a5,-1
   112de:	0cf50163          	beq	a0,a5,113a0 <_nl_find_msg+0x838>
   112e2:	000c8863          	beqz	s9,112f2 <_nl_find_msg+0x78a>
   112e6:	080d8513          	addi	a0,s11,128
   112ea:	fffef097          	auipc	ra,0xfffef
   112ee:	d16080e7          	jalr	-746(ra) # 0 <_nl_current_LC_CTYPE>
   112f2:	855a                	mv	a0,s6
   112f4:	3650c0ef          	jal	ra,1de58 <__free>
   112f8:	4781                	li	a5,0
   112fa:	84be                	mv	s1,a5
   112fc:	bc69                	j	10d96 <_nl_find_msg+0x22e>
   112fe:	f6843783          	ld	a5,-152(s0)
   11302:	9e018513          	addi	a0,gp,-1568 # 6cae8 <lock.10171>
   11306:	5a3100ef          	jal	ra,220a8 <__lll_lock_wait_private>
   1130a:	b91d                	j	10f40 <_nl_find_msg+0x3d8>
   1130c:	f6843703          	ld	a4,-152(s0)
   11310:	4781                	li	a5,0
   11312:	9e018713          	addi	a4,gp,-1568 # 6cae8 <lock.10171>
   11316:	0f50000f          	fence	iorw,ow
   1131a:	08f727af          	amoswap.w	a5,a5,(a4)
   1131e:	2781                	sext.w	a5,a5
   11320:	4705                	li	a4,1
   11322:	4481                	li	s1,0
   11324:	a6f759e3          	ble	a5,a4,10d96 <_nl_find_msg+0x22e>
   11328:	b569                	j	111b2 <_nl_find_msg+0x64a>
   1132a:	02f00793          	li	a5,47
   1132e:	00f70023          	sb	a5,0(a4)
   11332:	ca91                	beqz	a3,11346 <_nl_find_msg+0x7de>
   11334:	0705                	addi	a4,a4,1
   11336:	b50d                	j	11158 <_nl_find_msg+0x5f0>
   11338:	02f00793          	li	a5,47
   1133c:	00f50023          	sb	a5,0(a0)
   11340:	c695                	beqz	a3,1136c <_nl_find_msg+0x804>
   11342:	0505                	addi	a0,a0,1
   11344:	bb75                	j	11100 <_nl_find_msg+0x598>
   11346:	00f700a3          	sb	a5,1(a4)
   1134a:	0709                	addi	a4,a4,2
   1134c:	b531                	j	11158 <_nl_find_msg+0x5f0>
   1134e:	57fd                	li	a5,-1
   11350:	00fab823          	sd	a5,16(s5)
   11354:	bd45                	j	11204 <_nl_find_msg+0x69c>
   11356:	f6843783          	ld	a5,-152(s0)
   1135a:	9e018513          	addi	a0,gp,-1568 # 6cae8 <lock.10171>
   1135e:	54b100ef          	jal	ra,220a8 <__lll_lock_wait_private>
   11362:	bd71                	j	111fe <_nl_find_msg+0x696>
   11364:	8562                	mv	a0,s8
   11366:	bb51                	j	110fa <_nl_find_msg+0x592>
   11368:	872e                	mv	a4,a1
   1136a:	b3e5                	j	11152 <_nl_find_msg+0x5ea>
   1136c:	0004e5b7          	lui	a1,0x4e
   11370:	00f500a3          	sb	a5,1(a0)
   11374:	4621                	li	a2,8
   11376:	cc058593          	addi	a1,a1,-832 # 4dcc0 <to_wc+0x78>
   1137a:	0509                	addi	a0,a0,2
   1137c:	0c90e0ef          	jal	ra,1fc44 <__mempcpy>
   11380:	b341                	j	11100 <_nl_find_msg+0x598>
   11382:	f6843783          	ld	a5,-152(s0)
   11386:	06200893          	li	a7,98
   1138a:	08100593          	li	a1,129
   1138e:	9e018513          	addi	a0,gp,-1568 # 6cae8 <lock.10171>
   11392:	4605                	li	a2,1
   11394:	4681                	li	a3,0
   11396:	00000073          	ecall
   1139a:	bf39                	j	112b8 <_nl_find_msg+0x750>
   1139c:	62f100ef          	jal	ra,221ca <__stack_chk_fail>
   113a0:	00aab423          	sd	a0,8(s5)
   113a4:	b3e1                	j	1116c <_nl_find_msg+0x604>

00000000000113a6 <__dcigettext>:
   113a6:	712d                	addi	sp,sp,-288
   113a8:	ea22                	sd	s0,272(sp)
   113aa:	edde                	sd	s7,216(sp)
   113ac:	1200                	addi	s0,sp,288
   113ae:	ee06                	sd	ra,280(sp)
   113b0:	e626                	sd	s1,264(sp)
   113b2:	e24a                	sd	s2,256(sp)
   113b4:	fdce                	sd	s3,248(sp)
   113b6:	f9d2                	sd	s4,240(sp)
   113b8:	f5d6                	sd	s5,232(sp)
   113ba:	f1da                	sd	s6,224(sp)
   113bc:	e9e2                	sd	s8,208(sp)
   113be:	e5e6                	sd	s9,200(sp)
   113c0:	e1ea                	sd	s10,192(sp)
   113c2:	fd6e                	sd	s11,184(sp)
   113c4:	0006bbb7          	lui	s7,0x6b
   113c8:	ba0bb803          	ld	a6,-1120(s7) # 6aba0 <__fini_array_end>
   113cc:	f2043c23          	sd	zero,-200(s0)
   113d0:	f2c43023          	sd	a2,-224(s0)
   113d4:	f9043423          	sd	a6,-120(s0)
   113d8:	f2e43423          	sd	a4,-216(s0)
   113dc:	44058663          	beqz	a1,11828 <__dcigettext+0x482>
   113e0:	8b3e                	mv	s6,a5
   113e2:	47b1                	li	a5,12
   113e4:	8a2e                	mv	s4,a1
   113e6:	8cb6                	mv	s9,a3
   113e8:	2567e263          	bltu	a5,s6,1162c <__dcigettext+0x286>
   113ec:	4799                	li	a5,6
   113ee:	22fb0f63          	beq	s6,a5,1162c <__dcigettext+0x286>
   113f2:	02022783          	lw	a5,32(tp) # 20 <__libc_errno>
   113f6:	00000937          	lui	s2,0x0
   113fa:	00090913          	mv	s2,s2
   113fe:	eef43823          	sd	a5,-272(s0)
   11402:	8aaa                	mv	s5,a0
   11404:	26090763          	beqz	s2,11672 <__dcigettext+0x2cc>
   11408:	58818513          	addi	a0,gp,1416 # 6d690 <__libc_setlocale_lock>
   1140c:	fffef097          	auipc	ra,0xfffef
   11410:	bf4080e7          	jalr	-1036(ra) # 0 <_nl_current_LC_CTYPE>
   11414:	07018513          	addi	a0,gp,112 # 6d178 <_nl_state_lock>
   11418:	fffef097          	auipc	ra,0xfffef
   1141c:	be8080e7          	jalr	-1048(ra) # 0 <_nl_current_LC_CTYPE>
   11420:	300a8163          	beqz	s5,11722 <__dcigettext+0x37c>
   11424:	855a                	mv	a0,s6
   11426:	f6043423          	sd	zero,-152(s0)
   1142a:	f9443023          	sd	s4,-128(s0)
   1142e:	f5543423          	sd	s5,-184(s0)
   11432:	f5642823          	sw	s6,-176(s0)
   11436:	4be190ef          	jal	ra,2a8f4 <__current_locale_name>
   1143a:	eea43423          	sd	a0,-280(s0)
   1143e:	f4a43c23          	sd	a0,-168(s0)
   11442:	07018513          	addi	a0,gp,112 # 6d178 <_nl_state_lock>
   11446:	03850513          	addi	a0,a0,56
   1144a:	fffef097          	auipc	ra,0xfffef
   1144e:	bb6080e7          	jalr	-1098(ra) # 0 <_nl_current_LC_CTYPE>
   11452:	000117b7          	lui	a5,0x11
   11456:	ac878613          	addi	a2,a5,-1336 # 10ac8 <transcmp>
   1145a:	9f018593          	addi	a1,gp,-1552 # 6caf8 <root>
   1145e:	f4840513          	addi	a0,s0,-184
   11462:	25a100ef          	jal	ra,216bc <__tfind>
   11466:	000007b7          	lui	a5,0x0
   1146a:	00078793          	mv	a5,a5
   1146e:	eea43c23          	sd	a0,-264(s0)
   11472:	f0f43423          	sd	a5,-248(s0)
   11476:	c799                	beqz	a5,11484 <__dcigettext+0xde>
   11478:	0a818513          	addi	a0,gp,168 # 6d1b0 <tree_lock>
   1147c:	fffef097          	auipc	ra,0xfffef
   11480:	b84080e7          	jalr	-1148(ra) # 0 <_nl_current_LC_CTYPE>
   11484:	ef843783          	ld	a5,-264(s0)
   11488:	cb89                	beqz	a5,1149a <__dcigettext+0xf4>
   1148a:	6398                	ld	a4,0(a5)
   1148c:	0006e7b7          	lui	a5,0x6e
   11490:	ea07a783          	lw	a5,-352(a5) # 6dea0 <_nl_msg_cat_cntr>
   11494:	4f14                	lw	a3,24(a4)
   11496:	2af68a63          	beq	a3,a5,1174a <__dcigettext+0x3a4>
   1149a:	0006e7b7          	lui	a5,0x6e
   1149e:	e987b483          	ld	s1,-360(a5) # 6de98 <_nl_domain_bindings>
   114a2:	e499                	bnez	s1,114b0 <__dcigettext+0x10a>
   114a4:	a435                	j	116d0 <__dcigettext+0x32a>
   114a6:	22054463          	bltz	a0,116ce <__dcigettext+0x328>
   114aa:	6084                	ld	s1,0(s1)
   114ac:	22048263          	beqz	s1,116d0 <__dcigettext+0x32a>
   114b0:	01848593          	addi	a1,s1,24
   114b4:	8556                	mv	a0,s5
   114b6:	7cc0d0ef          	jal	ra,1ec82 <strcmp>
   114ba:	f575                	bnez	a0,114a6 <__dcigettext+0x100>
   114bc:	0084bc03          	ld	s8,8(s1)
   114c0:	02f00793          	li	a5,47
   114c4:	000c4703          	lbu	a4,0(s8)
   114c8:	02f70a63          	beq	a4,a5,114fc <__dcigettext+0x156>
   114cc:	4581                	li	a1,0
   114ce:	1d10f0ef          	jal	ra,20e9e <__getcwd>
   114d2:	892a                	mv	s2,a0
   114d4:	12050563          	beqz	a0,115fe <__dcigettext+0x258>
   114d8:	0004c5b7          	lui	a1,0x4c
   114dc:	862a                	mv	a2,a0
   114de:	86e2                	mv	a3,s8
   114e0:	30858593          	addi	a1,a1,776 # 4c308 <errstr.10284+0x68>
   114e4:	f3840513          	addi	a0,s0,-200
   114e8:	3f9030ef          	jal	ra,150e0 <___asprintf>
   114ec:	89aa                	mv	s3,a0
   114ee:	854a                	mv	a0,s2
   114f0:	1690c0ef          	jal	ra,1de58 <__free>
   114f4:	3209ca63          	bltz	s3,11828 <__dcigettext+0x482>
   114f8:	f3843c03          	ld	s8,-200(s0)
   114fc:	000507b7          	lui	a5,0x50
   11500:	86878793          	addi	a5,a5,-1944 # 4f868 <_nl_category_name_idxs>
   11504:	97da                	add	a5,a5,s6
   11506:	0007c783          	lbu	a5,0(a5)
   1150a:	00050937          	lui	s2,0x50
   1150e:	855a                	mv	a0,s6
   11510:	87890913          	addi	s2,s2,-1928 # 4f878 <_nl_category_names>
   11514:	993e                	add	s2,s2,a5
   11516:	3de190ef          	jal	ra,2a8f4 <__current_locale_name>
   1151a:	0004c7b7          	lui	a5,0x4c
   1151e:	31078593          	addi	a1,a5,784 # 4c310 <errstr.10284+0x70>
   11522:	8d2a                	mv	s10,a0
   11524:	75e0d0ef          	jal	ra,1ec82 <strcmp>
   11528:	24051c63          	bnez	a0,11780 <__dcigettext+0x3da>
   1152c:	8556                	mv	a0,s5
   1152e:	0eb0d0ef          	jal	ra,1ee18 <strlen>
   11532:	89aa                	mv	s3,a0
   11534:	eea43023          	sd	a0,-288(s0)
   11538:	854a                	mv	a0,s2
   1153a:	0df0d0ef          	jal	ra,1ee18 <strlen>
   1153e:	013507b3          	add	a5,a0,s3
   11542:	02378793          	addi	a5,a5,35
   11546:	9bc1                	andi	a5,a5,-16
   11548:	40f10133          	sub	sp,sp,a5
   1154c:	850a                	mv	a0,sp
   1154e:	85ca                	mv	a1,s2
   11550:	f0a43c23          	sd	a0,-232(s0)
   11554:	7060e0ef          	jal	ra,1fc5a <__stpcpy>
   11558:	02f00793          	li	a5,47
   1155c:	864e                	mv	a2,s3
   1155e:	00f50023          	sb	a5,0(a0)
   11562:	85d6                	mv	a1,s5
   11564:	000500a3          	sb	zero,1(a0)
   11568:	0505                	addi	a0,a0,1
   1156a:	6da0e0ef          	jal	ra,1fc44 <__mempcpy>
   1156e:	02e00793          	li	a5,46
   11572:	00f50023          	sb	a5,0(a0)
   11576:	06d00793          	li	a5,109
   1157a:	00f500a3          	sb	a5,1(a0)
   1157e:	06f00793          	li	a5,111
   11582:	00f50123          	sb	a5,2(a0)
   11586:	000501a3          	sb	zero,3(a0)
   1158a:	856a                	mv	a0,s10
   1158c:	08d0d0ef          	jal	ra,1ee18 <strlen>
   11590:	057d                	addi	a0,a0,31
   11592:	9941                	andi	a0,a0,-16
   11594:	40a10133          	sub	sp,sp,a0
   11598:	890a                	mv	s2,sp
   1159a:	03a00993          	li	s3,58
   1159e:	000d4783          	lbu	a5,0(s10) # 0 <_nl_current_LC_CTYPE>
   115a2:	0f378963          	beq	a5,s3,11694 <__dcigettext+0x2ee>
   115a6:	0e079963          	bnez	a5,11698 <__dcigettext+0x2f2>
   115aa:	04300793          	li	a5,67
   115ae:	00f91023          	sh	a5,0(s2)
   115b2:	0004c7b7          	lui	a5,0x4c
   115b6:	31078593          	addi	a1,a5,784 # 4c310 <errstr.10284+0x70>
   115ba:	854a                	mv	a0,s2
   115bc:	6c60d0ef          	jal	ra,1ec82 <strcmp>
   115c0:	cd1d                	beqz	a0,115fe <__dcigettext+0x258>
   115c2:	0004c7b7          	lui	a5,0x4c
   115c6:	32878593          	addi	a1,a5,808 # 4c328 <errstr.10284+0x88>
   115ca:	854a                	mv	a0,s2
   115cc:	6b60d0ef          	jal	ra,1ec82 <strcmp>
   115d0:	c51d                	beqz	a0,115fe <__dcigettext+0x258>
   115d2:	f1843603          	ld	a2,-232(s0)
   115d6:	86a6                	mv	a3,s1
   115d8:	85ca                	mv	a1,s2
   115da:	8562                	mv	a0,s8
   115dc:	346000ef          	jal	ra,11922 <_nl_find_domain>
   115e0:	8daa                	mv	s11,a0
   115e2:	dd55                	beqz	a0,1159e <__dcigettext+0x1f8>
   115e4:	f4040713          	addi	a4,s0,-192
   115e8:	4685                	li	a3,1
   115ea:	8652                	mv	a2,s4
   115ec:	85a6                	mv	a1,s1
   115ee:	d7aff0ef          	jal	ra,10b68 <_nl_find_msg>
   115f2:	87aa                	mv	a5,a0
   115f4:	0e050363          	beqz	a0,116da <__dcigettext+0x334>
   115f8:	577d                	li	a4,-1
   115fa:	1ae51963          	bne	a0,a4,117ac <__dcigettext+0x406>
   115fe:	f3843503          	ld	a0,-200(s0)
   11602:	0570c0ef          	jal	ra,1de58 <__free>
   11606:	f0843783          	ld	a5,-248(s0)
   1160a:	cf89                	beqz	a5,11624 <__dcigettext+0x27e>
   1160c:	07018513          	addi	a0,gp,112 # 6d178 <_nl_state_lock>
   11610:	fffef097          	auipc	ra,0xfffef
   11614:	9f0080e7          	jalr	-1552(ra) # 0 <_nl_current_LC_CTYPE>
   11618:	58818513          	addi	a0,gp,1416 # 6d690 <__libc_setlocale_lock>
   1161c:	fffef097          	auipc	ra,0xfffef
   11620:	9e4080e7          	jalr	-1564(ra) # 0 <_nl_current_LC_CTYPE>
   11624:	ef043703          	ld	a4,-272(s0)
   11628:	02e22023          	sw	a4,32(tp) # 20 <__libc_errno>
   1162c:	000c8763          	beqz	s9,1163a <__dcigettext+0x294>
   11630:	f2843703          	ld	a4,-216(s0)
   11634:	4785                	li	a5,1
   11636:	02f71b63          	bne	a4,a5,1166c <__dcigettext+0x2c6>
   1163a:	87d2                	mv	a5,s4
   1163c:	f8843683          	ld	a3,-120(s0)
   11640:	ba0bb703          	ld	a4,-1120(s7)
   11644:	853e                	mv	a0,a5
   11646:	2ce69c63          	bne	a3,a4,1191e <__dcigettext+0x578>
   1164a:	ee040113          	addi	sp,s0,-288
   1164e:	60f2                	ld	ra,280(sp)
   11650:	6452                	ld	s0,272(sp)
   11652:	64b2                	ld	s1,264(sp)
   11654:	6912                	ld	s2,256(sp)
   11656:	79ee                	ld	s3,248(sp)
   11658:	7a4e                	ld	s4,240(sp)
   1165a:	7aae                	ld	s5,232(sp)
   1165c:	7b0e                	ld	s6,224(sp)
   1165e:	6bee                	ld	s7,216(sp)
   11660:	6c4e                	ld	s8,208(sp)
   11662:	6cae                	ld	s9,200(sp)
   11664:	6d0e                	ld	s10,192(sp)
   11666:	7dea                	ld	s11,184(sp)
   11668:	6115                	addi	sp,sp,288
   1166a:	8082                	ret
   1166c:	f2043783          	ld	a5,-224(s0)
   11670:	b7f1                	j	1163c <__dcigettext+0x296>
   11672:	c945                	beqz	a0,11722 <__dcigettext+0x37c>
   11674:	855a                	mv	a0,s6
   11676:	f6043423          	sd	zero,-152(s0)
   1167a:	f8b43023          	sd	a1,-128(s0)
   1167e:	f5543423          	sd	s5,-184(s0)
   11682:	f5642823          	sw	s6,-176(s0)
   11686:	26e190ef          	jal	ra,2a8f4 <__current_locale_name>
   1168a:	eea43423          	sd	a0,-280(s0)
   1168e:	f4a43c23          	sd	a0,-168(s0)
   11692:	b3c1                	j	11452 <__dcigettext+0xac>
   11694:	0d05                	addi	s10,s10,1
   11696:	b721                	j	1159e <__dcigettext+0x1f8>
   11698:	874a                	mv	a4,s2
   1169a:	a019                	j	116a0 <__dcigettext+0x2fa>
   1169c:	01378963          	beq	a5,s3,116ae <__dcigettext+0x308>
   116a0:	0705                	addi	a4,a4,1
   116a2:	0d05                	addi	s10,s10,1
   116a4:	fef70fa3          	sb	a5,-1(a4)
   116a8:	000d4783          	lbu	a5,0(s10)
   116ac:	fbe5                	bnez	a5,1169c <__dcigettext+0x2f6>
   116ae:	0006b7b7          	lui	a5,0x6b
   116b2:	fb87a783          	lw	a5,-72(a5) # 6afb8 <__libc_enable_secure>
   116b6:	00070023          	sb	zero,0(a4)
   116ba:	ee078ce3          	beqz	a5,115b2 <__dcigettext+0x20c>
   116be:	02f00593          	li	a1,47
   116c2:	854a                	mv	a0,s2
   116c4:	4ce0d0ef          	jal	ra,1eb92 <strchr>
   116c8:	ec051be3          	bnez	a0,1159e <__dcigettext+0x1f8>
   116cc:	b5dd                	j	115b2 <__dcigettext+0x20c>
   116ce:	4481                	li	s1,0
   116d0:	0004cc37          	lui	s8,0x4c
   116d4:	330c0c13          	addi	s8,s8,816 # 4c330 <_nl_default_dirname>
   116d8:	b515                	j	114fc <__dcigettext+0x156>
   116da:	020db503          	ld	a0,32(s11)
   116de:	ec0500e3          	beqz	a0,1159e <__dcigettext+0x1f8>
   116e2:	028d8313          	addi	t1,s11,40
   116e6:	f0043823          	sd	zero,-240(s0)
   116ea:	a831                	j	11706 <__dcigettext+0x360>
   116ec:	f0043303          	ld	t1,-256(s0)
   116f0:	e555                	bnez	a0,1179c <__dcigettext+0x3f6>
   116f2:	f1043783          	ld	a5,-240(s0)
   116f6:	0321                	addi	t1,t1,8
   116f8:	ff833503          	ld	a0,-8(t1) # fffffffffffffff8 <_end+0xfffffffffff91f70>
   116fc:	2785                	addiw	a5,a5,1
   116fe:	f0f43823          	sd	a5,-240(s0)
   11702:	e8050ee3          	beqz	a0,1159e <__dcigettext+0x1f8>
   11706:	f4040713          	addi	a4,s0,-192
   1170a:	4685                	li	a3,1
   1170c:	8652                	mv	a2,s4
   1170e:	85a6                	mv	a1,s1
   11710:	f0643023          	sd	t1,-256(s0)
   11714:	c54ff0ef          	jal	ra,10b68 <_nl_find_msg>
   11718:	577d                	li	a4,-1
   1171a:	87aa                	mv	a5,a0
   1171c:	fce518e3          	bne	a0,a4,116ec <__dcigettext+0x346>
   11720:	bdf9                	j	115fe <__dcigettext+0x258>
   11722:	8681ba83          	ld	s5,-1944(gp) # 6c970 <_nl_current_default_domain>
   11726:	855a                	mv	a0,s6
   11728:	f6043423          	sd	zero,-152(s0)
   1172c:	f9443023          	sd	s4,-128(s0)
   11730:	f5543423          	sd	s5,-184(s0)
   11734:	f5642823          	sw	s6,-176(s0)
   11738:	1bc190ef          	jal	ra,2a8f4 <__current_locale_name>
   1173c:	eea43423          	sd	a0,-280(s0)
   11740:	f4a43c23          	sd	a0,-168(s0)
   11744:	d00907e3          	beqz	s2,11452 <__dcigettext+0xac>
   11748:	b9ed                	j	11442 <__dcigettext+0x9c>
   1174a:	771c                	ld	a5,40(a4)
   1174c:	0e0c9063          	bnez	s9,1182c <__dcigettext+0x486>
   11750:	f0843703          	ld	a4,-248(s0)
   11754:	c30d                	beqz	a4,11776 <__dcigettext+0x3d0>
   11756:	07018513          	addi	a0,gp,112 # 6d178 <_nl_state_lock>
   1175a:	f2f43423          	sd	a5,-216(s0)
   1175e:	fffef097          	auipc	ra,0xfffef
   11762:	8a2080e7          	jalr	-1886(ra) # 0 <_nl_current_LC_CTYPE>
   11766:	58818513          	addi	a0,gp,1416 # 6d690 <__libc_setlocale_lock>
   1176a:	fffef097          	auipc	ra,0xfffef
   1176e:	896080e7          	jalr	-1898(ra) # 0 <_nl_current_LC_CTYPE>
   11772:	f2843783          	ld	a5,-216(s0)
   11776:	ef043683          	ld	a3,-272(s0)
   1177a:	02d22023          	sw	a3,32(tp) # 20 <__libc_errno>
   1177e:	bd7d                	j	1163c <__dcigettext+0x296>
   11780:	0004c537          	lui	a0,0x4c
   11784:	31850513          	addi	a0,a0,792 # 4c318 <errstr.10284+0x78>
   11788:	7bd020ef          	jal	ra,14744 <getenv>
   1178c:	da0500e3          	beqz	a0,1152c <__dcigettext+0x186>
   11790:	00054783          	lbu	a5,0(a0)
   11794:	d8078ce3          	beqz	a5,1152c <__dcigettext+0x186>
   11798:	8d2a                	mv	s10,a0
   1179a:	bb49                	j	1152c <__dcigettext+0x186>
   1179c:	f1043703          	ld	a4,-240(s0)
   117a0:	0711                	addi	a4,a4,4
   117a2:	070e                	slli	a4,a4,0x3
   117a4:	00ed88b3          	add	a7,s11,a4
   117a8:	0008bd83          	ld	s11,0(a7)
   117ac:	f3843503          	ld	a0,-200(s0)
   117b0:	f2f43023          	sd	a5,-224(s0)
   117b4:	6a40c0ef          	jal	ra,1de58 <__free>
   117b8:	ef843703          	ld	a4,-264(s0)
   117bc:	f2043783          	ld	a5,-224(s0)
   117c0:	c341                	beqz	a4,11840 <__dcigettext+0x49a>
   117c2:	ef843703          	ld	a4,-264(s0)
   117c6:	0006e6b7          	lui	a3,0x6e
   117ca:	ea06a683          	lw	a3,-352(a3) # 6dea0 <_nl_msg_cat_cntr>
   117ce:	6318                	ld	a4,0(a4)
   117d0:	cf14                	sw	a3,24(a4)
   117d2:	f4043683          	ld	a3,-192(s0)
   117d6:	03b73023          	sd	s11,32(a4)
   117da:	f71c                	sd	a5,40(a4)
   117dc:	fb14                	sd	a3,48(a4)
   117de:	ef043683          	ld	a3,-272(s0)
   117e2:	02d22023          	sw	a3,32(tp) # 20 <__libc_errno>
   117e6:	000c8c63          	beqz	s9,117fe <__dcigettext+0x458>
   117ea:	f4043683          	ld	a3,-192(s0)
   117ee:	010db503          	ld	a0,16(s11)
   117f2:	f2843583          	ld	a1,-216(s0)
   117f6:	863e                	mv	a2,a5
   117f8:	b1eff0ef          	jal	ra,10b16 <plural_lookup.isra.2>
   117fc:	87aa                	mv	a5,a0
   117fe:	f0843703          	ld	a4,-248(s0)
   11802:	e2070de3          	beqz	a4,1163c <__dcigettext+0x296>
   11806:	07018513          	addi	a0,gp,112 # 6d178 <_nl_state_lock>
   1180a:	f2f43423          	sd	a5,-216(s0)
   1180e:	fffee097          	auipc	ra,0xfffee
   11812:	7f2080e7          	jalr	2034(ra) # 0 <_nl_current_LC_CTYPE>
   11816:	58818513          	addi	a0,gp,1416 # 6d690 <__libc_setlocale_lock>
   1181a:	fffee097          	auipc	ra,0xfffee
   1181e:	7e6080e7          	jalr	2022(ra) # 0 <_nl_current_LC_CTYPE>
   11822:	f2843783          	ld	a5,-216(s0)
   11826:	bd19                	j	1163c <__dcigettext+0x296>
   11828:	4781                	li	a5,0
   1182a:	bd09                	j	1163c <__dcigettext+0x296>
   1182c:	730c                	ld	a1,32(a4)
   1182e:	7b14                	ld	a3,48(a4)
   11830:	863e                	mv	a2,a5
   11832:	6988                	ld	a0,16(a1)
   11834:	f2843583          	ld	a1,-216(s0)
   11838:	adeff0ef          	jal	ra,10b16 <plural_lookup.isra.2>
   1183c:	87aa                	mv	a5,a0
   1183e:	bf09                	j	11750 <__dcigettext+0x3aa>
   11840:	8552                	mv	a0,s4
   11842:	5d60d0ef          	jal	ra,1ee18 <strlen>
   11846:	ee843c03          	ld	s8,-280(s0)
   1184a:	00150493          	addi	s1,a0,1
   1184e:	8562                	mv	a0,s8
   11850:	5c80d0ef          	jal	ra,1ee18 <strlen>
   11854:	ee043983          	ld	s3,-288(s0)
   11858:	03a98713          	addi	a4,s3,58
   1185c:	953a                	add	a0,a0,a4
   1185e:	9526                	add	a0,a0,s1
   11860:	1800c0ef          	jal	ra,1d9e0 <__libc_malloc>
   11864:	892a                	mv	s2,a0
   11866:	f2043783          	ld	a5,-224(s0)
   1186a:	d935                	beqz	a0,117de <__dcigettext+0x438>
   1186c:	8626                	mv	a2,s1
   1186e:	85d2                	mv	a1,s4
   11870:	03850513          	addi	a0,a0,56
   11874:	3d00e0ef          	jal	ra,1fc44 <__mempcpy>
   11878:	0985                	addi	s3,s3,1
   1187a:	84aa                	mv	s1,a0
   1187c:	864e                	mv	a2,s3
   1187e:	85d6                	mv	a1,s5
   11880:	43a0e0ef          	jal	ra,1fcba <memcpy>
   11884:	99a6                	add	s3,s3,s1
   11886:	85e2                	mv	a1,s8
   11888:	854e                	mv	a0,s3
   1188a:	4160d0ef          	jal	ra,1eca0 <strcpy>
   1188e:	0006e737          	lui	a4,0x6e
   11892:	ea072703          	lw	a4,-352(a4) # 6dea0 <_nl_msg_cat_cntr>
   11896:	f2043783          	ld	a5,-224(s0)
   1189a:	00993023          	sd	s1,0(s2)
   1189e:	00e92c23          	sw	a4,24(s2)
   118a2:	f4043703          	ld	a4,-192(s0)
   118a6:	01692423          	sw	s6,8(s2)
   118aa:	01393823          	sd	s3,16(s2)
   118ae:	02e93823          	sd	a4,48(s2)
   118b2:	00000737          	lui	a4,0x0
   118b6:	03b93023          	sd	s11,32(s2)
   118ba:	02f93423          	sd	a5,40(s2)
   118be:	00070713          	mv	a4,a4
   118c2:	cb09                	beqz	a4,118d4 <__dcigettext+0x52e>
   118c4:	0a818513          	addi	a0,gp,168 # 6d1b0 <tree_lock>
   118c8:	fffee097          	auipc	ra,0xfffee
   118cc:	738080e7          	jalr	1848(ra) # 0 <_nl_current_LC_CTYPE>
   118d0:	f2043783          	ld	a5,-224(s0)
   118d4:	f2f43023          	sd	a5,-224(s0)
   118d8:	000117b7          	lui	a5,0x11
   118dc:	ac878613          	addi	a2,a5,-1336 # 10ac8 <transcmp>
   118e0:	9f018593          	addi	a1,gp,-1552 # 6caf8 <root>
   118e4:	854a                	mv	a0,s2
   118e6:	4f50f0ef          	jal	ra,215da <__tsearch>
   118ea:	f0843703          	ld	a4,-248(s0)
   118ee:	84aa                	mv	s1,a0
   118f0:	f2043783          	ld	a5,-224(s0)
   118f4:	cb09                	beqz	a4,11906 <__dcigettext+0x560>
   118f6:	0a818513          	addi	a0,gp,168 # 6d1b0 <tree_lock>
   118fa:	fffee097          	auipc	ra,0xfffee
   118fe:	706080e7          	jalr	1798(ra) # 0 <_nl_current_LC_CTYPE>
   11902:	f2043783          	ld	a5,-224(s0)
   11906:	c481                	beqz	s1,1190e <__dcigettext+0x568>
   11908:	6098                	ld	a4,0(s1)
   1190a:	ed270ae3          	beq	a4,s2,117de <__dcigettext+0x438>
   1190e:	854a                	mv	a0,s2
   11910:	f2f43023          	sd	a5,-224(s0)
   11914:	5440c0ef          	jal	ra,1de58 <__free>
   11918:	f2043783          	ld	a5,-224(s0)
   1191c:	b5c9                	j	117de <__dcigettext+0x438>
   1191e:	0ad100ef          	jal	ra,221ca <__stack_chk_fail>

0000000000011922 <_nl_find_domain>:
   11922:	7171                	addi	sp,sp,-176
   11924:	e94a                	sd	s2,144(sp)
   11926:	0006b937          	lui	s2,0x6b
   1192a:	ba093703          	ld	a4,-1120(s2) # 6aba0 <__fini_array_end>
   1192e:	000007b7          	lui	a5,0x0
   11932:	e54e                	sd	s3,136(sp)
   11934:	e152                	sd	s4,128(sp)
   11936:	fcd6                	sd	s5,120(sp)
   11938:	f4de                	sd	s7,104(sp)
   1193a:	f506                	sd	ra,168(sp)
   1193c:	f122                	sd	s0,160(sp)
   1193e:	ed26                	sd	s1,152(sp)
   11940:	f8da                	sd	s6,112(sp)
   11942:	f0e2                	sd	s8,96(sp)
   11944:	ece6                	sd	s9,88(sp)
   11946:	00078793          	mv	a5,a5
   1194a:	e4ba                	sd	a4,72(sp)
   1194c:	89aa                	mv	s3,a0
   1194e:	8aae                	mv	s5,a1
   11950:	8bb2                	mv	s7,a2
   11952:	8a36                	mv	s4,a3
   11954:	c799                	beqz	a5,11962 <_nl_find_domain+0x40>
   11956:	0e018513          	addi	a0,gp,224 # 6d1e8 <lock.9487>
   1195a:	fffee097          	auipc	ra,0xfffee
   1195e:	6a6080e7          	jalr	1702(ra) # 0 <_nl_current_LC_CTYPE>
   11962:	854e                	mv	a0,s3
   11964:	4b40d0ef          	jal	ra,1ee18 <strlen>
   11968:	00150613          	addi	a2,a0,1
   1196c:	e802                	sd	zero,16(sp)
   1196e:	e45e                	sd	s7,8(sp)
   11970:	e002                	sd	zero,0(sp)
   11972:	4881                	li	a7,0
   11974:	4801                	li	a6,0
   11976:	4781                	li	a5,0
   11978:	8756                	mv	a4,s5
   1197a:	4681                	li	a3,0
   1197c:	85ce                	mv	a1,s3
   1197e:	9f818513          	addi	a0,gp,-1544 # 6cb00 <_nl_loaded_domains>
   11982:	00000437          	lui	s0,0x0
   11986:	79c010ef          	jal	ra,13122 <_nl_make_l10nflist>
   1198a:	00040413          	mv	s0,s0
   1198e:	84aa                	mv	s1,a0
   11990:	c419                	beqz	s0,1199e <_nl_find_domain+0x7c>
   11992:	0e018513          	addi	a0,gp,224 # 6d1e8 <lock.9487>
   11996:	fffee097          	auipc	ra,0xfffee
   1199a:	66a080e7          	jalr	1642(ra) # 0 <_nl_current_LC_CTYPE>
   1199e:	c0a5                	beqz	s1,119fe <_nl_find_domain+0xdc>
   119a0:	449c                	lw	a5,8(s1)
   119a2:	04f05963          	blez	a5,119f4 <_nl_find_domain+0xd2>
   119a6:	689c                	ld	a5,16(s1)
   119a8:	c785                	beqz	a5,119d0 <_nl_find_domain+0xae>
   119aa:	6726                	ld	a4,72(sp)
   119ac:	ba093783          	ld	a5,-1120(s2)
   119b0:	8526                	mv	a0,s1
   119b2:	12f71563          	bne	a4,a5,11adc <_nl_find_domain+0x1ba>
   119b6:	70aa                	ld	ra,168(sp)
   119b8:	740a                	ld	s0,160(sp)
   119ba:	64ea                	ld	s1,152(sp)
   119bc:	694a                	ld	s2,144(sp)
   119be:	69aa                	ld	s3,136(sp)
   119c0:	6a0a                	ld	s4,128(sp)
   119c2:	7ae6                	ld	s5,120(sp)
   119c4:	7b46                	ld	s6,112(sp)
   119c6:	7ba6                	ld	s7,104(sp)
   119c8:	7c06                	ld	s8,96(sp)
   119ca:	6ce6                	ld	s9,88(sp)
   119cc:	614d                	addi	sp,sp,176
   119ce:	8082                	ret
   119d0:	7088                	ld	a0,32(s1)
   119d2:	dd61                	beqz	a0,119aa <_nl_find_domain+0x88>
   119d4:	02048413          	addi	s0,s1,32
   119d8:	a039                	j	119e6 <_nl_find_domain+0xc4>
   119da:	601c                	ld	a5,0(s0)
   119dc:	6b9c                	ld	a5,16(a5)
   119de:	f7f1                	bnez	a5,119aa <_nl_find_domain+0x88>
   119e0:	0421                	addi	s0,s0,8
   119e2:	6008                	ld	a0,0(s0)
   119e4:	d179                	beqz	a0,119aa <_nl_find_domain+0x88>
   119e6:	451c                	lw	a5,8(a0)
   119e8:	fef049e3          	bgtz	a5,119da <_nl_find_domain+0xb8>
   119ec:	85d2                	mv	a1,s4
   119ee:	0f2000ef          	jal	ra,11ae0 <_nl_load_domain>
   119f2:	b7e5                	j	119da <_nl_find_domain+0xb8>
   119f4:	85d2                	mv	a1,s4
   119f6:	8526                	mv	a0,s1
   119f8:	0e8000ef          	jal	ra,11ae0 <_nl_load_domain>
   119fc:	b76d                	j	119a6 <_nl_find_domain+0x84>
   119fe:	8556                	mv	a0,s5
   11a00:	5ac010ef          	jal	ra,12fac <_nl_expand_alias>
   11a04:	8caa                	mv	s9,a0
   11a06:	cd11                	beqz	a0,11a22 <_nl_find_domain+0x100>
   11a08:	4100d0ef          	jal	ra,1ee18 <strlen>
   11a0c:	00150c13          	addi	s8,a0,1
   11a10:	8562                	mv	a0,s8
   11a12:	7cf0b0ef          	jal	ra,1d9e0 <__libc_malloc>
   11a16:	8aaa                	mv	s5,a0
   11a18:	d949                	beqz	a0,119aa <_nl_find_domain+0x88>
   11a1a:	8662                	mv	a2,s8
   11a1c:	85e6                	mv	a1,s9
   11a1e:	29c0e0ef          	jal	ra,1fcba <memcpy>
   11a22:	009c                	addi	a5,sp,64
   11a24:	1838                	addi	a4,sp,56
   11a26:	1814                	addi	a3,sp,48
   11a28:	1030                	addi	a2,sp,40
   11a2a:	100c                	addi	a1,sp,32
   11a2c:	8556                	mv	a0,s5
   11a2e:	3e9010ef          	jal	ra,13616 <_nl_explode_name>
   11a32:	57fd                	li	a5,-1
   11a34:	8c2a                	mv	s8,a0
   11a36:	f6f50ae3          	beq	a0,a5,119aa <_nl_find_domain+0x88>
   11a3a:	000007b7          	lui	a5,0x0
   11a3e:	00078793          	mv	a5,a5
   11a42:	c799                	beqz	a5,11a50 <_nl_find_domain+0x12e>
   11a44:	0e018513          	addi	a0,gp,224 # 6d1e8 <lock.9487>
   11a48:	fffee097          	auipc	ra,0xfffee
   11a4c:	5b8080e7          	jalr	1464(ra) # 0 <_nl_current_LC_CTYPE>
   11a50:	854e                	mv	a0,s3
   11a52:	3c60d0ef          	jal	ra,1ee18 <strlen>
   11a56:	4785                	li	a5,1
   11a58:	e83e                	sd	a5,16(sp)
   11a5a:	77a2                	ld	a5,40(sp)
   11a5c:	6886                	ld	a7,64(sp)
   11a5e:	7862                	ld	a6,56(sp)
   11a60:	e03e                	sd	a5,0(sp)
   11a62:	7702                	ld	a4,32(sp)
   11a64:	77c2                	ld	a5,48(sp)
   11a66:	00150613          	addi	a2,a0,1
   11a6a:	e45e                	sd	s7,8(sp)
   11a6c:	86e2                	mv	a3,s8
   11a6e:	85ce                	mv	a1,s3
   11a70:	9f818513          	addi	a0,gp,-1544 # 6cb00 <_nl_loaded_domains>
   11a74:	6ae010ef          	jal	ra,13122 <_nl_make_l10nflist>
   11a78:	84aa                	mv	s1,a0
   11a7a:	c419                	beqz	s0,11a88 <_nl_find_domain+0x166>
   11a7c:	0e018513          	addi	a0,gp,224 # 6d1e8 <lock.9487>
   11a80:	fffee097          	auipc	ra,0xfffee
   11a84:	580080e7          	jalr	1408(ra) # 0 <_nl_current_LC_CTYPE>
   11a88:	c899                	beqz	s1,11a9e <_nl_find_domain+0x17c>
   11a8a:	449c                	lw	a5,8(s1)
   11a8c:	04f05363          	blez	a5,11ad2 <_nl_find_domain+0x1b0>
   11a90:	689c                	ld	a5,16(s1)
   11a92:	cf91                	beqz	a5,11aae <_nl_find_domain+0x18c>
   11a94:	000c8563          	beqz	s9,11a9e <_nl_find_domain+0x17c>
   11a98:	8556                	mv	a0,s5
   11a9a:	3be0c0ef          	jal	ra,1de58 <__free>
   11a9e:	001c7c13          	andi	s8,s8,1
   11aa2:	f00c04e3          	beqz	s8,119aa <_nl_find_domain+0x88>
   11aa6:	6506                	ld	a0,64(sp)
   11aa8:	3b00c0ef          	jal	ra,1de58 <__free>
   11aac:	bdfd                	j	119aa <_nl_find_domain+0x88>
   11aae:	7088                	ld	a0,32(s1)
   11ab0:	d175                	beqz	a0,11a94 <_nl_find_domain+0x172>
   11ab2:	02048413          	addi	s0,s1,32
   11ab6:	a039                	j	11ac4 <_nl_find_domain+0x1a2>
   11ab8:	601c                	ld	a5,0(s0)
   11aba:	6b9c                	ld	a5,16(a5)
   11abc:	ffe1                	bnez	a5,11a94 <_nl_find_domain+0x172>
   11abe:	0421                	addi	s0,s0,8
   11ac0:	6008                	ld	a0,0(s0)
   11ac2:	d969                	beqz	a0,11a94 <_nl_find_domain+0x172>
   11ac4:	451c                	lw	a5,8(a0)
   11ac6:	fef049e3          	bgtz	a5,11ab8 <_nl_find_domain+0x196>
   11aca:	85d2                	mv	a1,s4
   11acc:	014000ef          	jal	ra,11ae0 <_nl_load_domain>
   11ad0:	b7e5                	j	11ab8 <_nl_find_domain+0x196>
   11ad2:	85d2                	mv	a1,s4
   11ad4:	8526                	mv	a0,s1
   11ad6:	00a000ef          	jal	ra,11ae0 <_nl_load_domain>
   11ada:	bf5d                	j	11a90 <_nl_find_domain+0x16e>
   11adc:	6ee100ef          	jal	ra,221ca <__stack_chk_fail>

0000000000011ae0 <_nl_load_domain>:
   11ae0:	7161                	addi	sp,sp,-432
   11ae2:	f322                	sd	s0,416(sp)
   11ae4:	e6ee                	sd	s11,328(sp)
   11ae6:	0006bdb7          	lui	s11,0x6b
   11aea:	eaea                	sd	s10,336(sp)
   11aec:	ba0db703          	ld	a4,-1120(s11) # 6aba0 <__fini_array_end>
   11af0:	11818d13          	addi	s10,gp,280 # 6d220 <lock.9411>
   11af4:	008d3783          	ld	a5,8(s10)
   11af8:	ef26                	sd	s1,408(sp)
   11afa:	eb4a                	sd	s2,400(sp)
   11afc:	f2e2                	sd	s8,352(sp)
   11afe:	f706                	sd	ra,424(sp)
   11b00:	e74e                	sd	s3,392(sp)
   11b02:	e352                	sd	s4,384(sp)
   11b04:	fed6                	sd	s5,376(sp)
   11b06:	fada                	sd	s6,368(sp)
   11b08:	f6de                	sd	s7,360(sp)
   11b0a:	eee6                	sd	s9,344(sp)
   11b0c:	fe3a                	sd	a4,312(sp)
   11b0e:	90020913          	addi	s2,tp,-1792 # fffffffffffff900 <_end+0xfffffffffff91878>
   11b12:	8c2a                	mv	s8,a0
   11b14:	84ae                	mv	s1,a1
   11b16:	01278f63          	beq	a5,s2,11b34 <_nl_load_domain+0x54>
   11b1a:	4705                	li	a4,1
   11b1c:	100d27af          	lr.w	a5,(s10)
   11b20:	00079563          	bnez	a5,11b2a <_nl_load_domain+0x4a>
   11b24:	1ced26af          	sc.w.aq	a3,a4,(s10)
   11b28:	faf5                	bnez	a3,11b1c <_nl_load_domain+0x3c>
   11b2a:	2781                	sext.w	a5,a5
   11b2c:	40079663          	bnez	a5,11f38 <_nl_load_domain+0x458>
   11b30:	012d3423          	sd	s2,8(s10)
   11b34:	004d2783          	lw	a5,4(s10)
   11b38:	008c2703          	lw	a4,8(s8)
   11b3c:	2785                	addiw	a5,a5,1
   11b3e:	00fd2223          	sw	a5,4(s10)
   11b42:	e70d                	bnez	a4,11b6c <_nl_load_domain+0x8c>
   11b44:	000c3503          	ld	a0,0(s8)
   11b48:	577d                	li	a4,-1
   11b4a:	00ec2423          	sw	a4,8(s8)
   11b4e:	000c3823          	sd	zero,16(s8)
   11b52:	c911                	beqz	a0,11b66 <_nl_load_domain+0x86>
   11b54:	4581                	li	a1,0
   11b56:	7ab0e0ef          	jal	ra,20b00 <__open64_nocancel>
   11b5a:	5afd                	li	s5,-1
   11b5c:	8a2a                	mv	s4,a0
   11b5e:	07551663          	bne	a0,s5,11bca <_nl_load_domain+0xea>
   11b62:	004d2783          	lw	a5,4(s10)
   11b66:	4705                	li	a4,1
   11b68:	00ec2423          	sw	a4,8(s8)
   11b6c:	fff7871b          	addiw	a4,a5,-1
   11b70:	00ed2223          	sw	a4,4(s10)
   11b74:	c70d                	beqz	a4,11b9e <_nl_load_domain+0xbe>
   11b76:	7772                	ld	a4,312(sp)
   11b78:	ba0db783          	ld	a5,-1120(s11)
   11b7c:	6af71863          	bne	a4,a5,1222c <_nl_load_domain+0x74c>
   11b80:	70ba                	ld	ra,424(sp)
   11b82:	741a                	ld	s0,416(sp)
   11b84:	64fa                	ld	s1,408(sp)
   11b86:	695a                	ld	s2,400(sp)
   11b88:	69ba                	ld	s3,392(sp)
   11b8a:	6a1a                	ld	s4,384(sp)
   11b8c:	7af6                	ld	s5,376(sp)
   11b8e:	7b56                	ld	s6,368(sp)
   11b90:	7bb6                	ld	s7,360(sp)
   11b92:	7c16                	ld	s8,352(sp)
   11b94:	6cf6                	ld	s9,344(sp)
   11b96:	6d56                	ld	s10,336(sp)
   11b98:	6db6                	ld	s11,328(sp)
   11b9a:	615d                	addi	sp,sp,432
   11b9c:	8082                	ret
   11b9e:	000d3423          	sd	zero,8(s10)
   11ba2:	87ba                	mv	a5,a4
   11ba4:	0f50000f          	fence	iorw,ow
   11ba8:	08fd27af          	amoswap.w	a5,a5,(s10)
   11bac:	2781                	sext.w	a5,a5
   11bae:	4705                	li	a4,1
   11bb0:	fcf753e3          	ble	a5,a4,11b76 <_nl_load_domain+0x96>
   11bb4:	06200893          	li	a7,98
   11bb8:	11818513          	addi	a0,gp,280 # 6d220 <lock.9411>
   11bbc:	08100593          	li	a1,129
   11bc0:	4605                	li	a2,1
   11bc2:	4681                	li	a3,0
   11bc4:	00000073          	ecall
   11bc8:	b77d                	j	11b76 <_nl_load_domain+0x96>
   11bca:	85aa                	mv	a1,a0
   11bcc:	1930                	addi	a2,sp,184
   11bce:	4501                	li	a0,0
   11bd0:	6410e0ef          	jal	ra,20a10 <__fxstat>
   11bd4:	8b2a                	mv	s6,a0
   11bd6:	36051d63          	bnez	a0,11f50 <_nl_load_domain+0x470>
   11bda:	79ae                	ld	s3,232(sp)
   11bdc:	02f00793          	li	a5,47
   11be0:	3737f863          	bleu	s3,a5,11f50 <_nl_load_domain+0x470>
   11be4:	4781                	li	a5,0
   11be6:	8752                	mv	a4,s4
   11be8:	4689                	li	a3,2
   11bea:	4605                	li	a2,1
   11bec:	85ce                	mv	a1,s3
   11bee:	7980f0ef          	jal	ra,21386 <__mmap64>
   11bf2:	892a                	mv	s2,a0
   11bf4:	3d550363          	beq	a0,s5,11fba <_nl_load_domain+0x4da>
   11bf8:	8552                	mv	a0,s4
   11bfa:	2860f0ef          	jal	ra,20e80 <__close_nocancel>
   11bfe:	00092703          	lw	a4,0(s2)
   11c02:	950417b7          	lui	a5,0x95041
   11c06:	2de78793          	addi	a5,a5,734 # ffffffff950412de <_end+0xffffffff94fd3256>
   11c0a:	4a05                	li	s4,1
   11c0c:	56f71063          	bne	a4,a5,1216c <_nl_load_domain+0x68c>
   11c10:	0c800513          	li	a0,200
   11c14:	5cd0b0ef          	jal	ra,1d9e0 <__libc_malloc>
   11c18:	8caa                	mv	s9,a0
   11c1a:	d521                	beqz	a0,11b62 <_nl_load_domain+0x82>
   11c1c:	00492b83          	lw	s7,4(s2)
   11c20:	4705                	li	a4,1
   11c22:	019c3823          	sd	s9,16(s8)
   11c26:	012cb023          	sd	s2,0(s9)
   11c2a:	014ca423          	sw	s4,8(s9)
   11c2e:	013cb823          	sd	s3,16(s9)
   11c32:	000cac23          	sw	zero,24(s9)
   11c36:	020cb023          	sd	zero,32(s9)
   11c3a:	410bd693          	srai	a3,s7,0x10
   11c3e:	36d76c63          	bltu	a4,a3,11fb6 <_nl_load_domain+0x4d6>
   11c42:	00c96683          	lwu	a3,12(s2)
   11c46:	01096703          	lwu	a4,16(s2)
   11c4a:	00892603          	lw	a2,8(s2)
   11c4e:	01492803          	lw	a6,20(s2)
   11c52:	974a                	add	a4,a4,s2
   11c54:	96ca                	add	a3,a3,s2
   11c56:	02ecbc23          	sd	a4,56(s9)
   11c5a:	02cca423          	sw	a2,40(s9)
   11c5e:	02dcb823          	sd	a3,48(s9)
   11c62:	050cac23          	sw	a6,88(s9)
   11c66:	4709                	li	a4,2
   11c68:	2f077a63          	bleu	a6,a4,11f5c <_nl_load_domain+0x47c>
   11c6c:	01896703          	lwu	a4,24(s2)
   11c70:	95041ab7          	lui	s5,0x95041
   11c74:	2dea8a93          	addi	s5,s5,734 # ffffffff950412de <_end+0xffffffff94fd3256>
   11c78:	974a                	add	a4,a4,s2
   11c7a:	1bc2                	slli	s7,s7,0x30
   11c7c:	06ecb023          	sd	a4,96(s9)
   11c80:	076ca423          	sw	s6,104(s9)
   11c84:	030bdb93          	srli	s7,s7,0x30
   11c88:	2e0b8363          	beqz	s7,11f6e <_nl_load_domain+0x48e>
   11c8c:	30070363          	beqz	a4,11f92 <_nl_load_domain+0x4b2>
   11c90:	02492783          	lw	a5,36(s2)
   11c94:	95041737          	lui	a4,0x95041
   11c98:	2de70713          	addi	a4,a4,734 # ffffffff950412de <_end+0xffffffff94fd3256>
   11c9c:	e0be                	sd	a5,64(sp)
   11c9e:	4eea8463          	beq	s5,a4,12186 <_nl_load_domain+0x6a6>
   11ca2:	853e                	mv	a0,a5
   11ca4:	e442                	sd	a6,8(sp)
   11ca6:	17f350ef          	jal	ra,47624 <__bswapsi2>
   11caa:	0005079b          	sext.w	a5,a0
   11cae:	e0be                	sd	a5,64(sp)
   11cb0:	6822                	ld	a6,8(sp)
   11cb2:	2a078e63          	beqz	a5,11f6e <_nl_load_domain+0x48e>
   11cb6:	01c92503          	lw	a0,28(s2)
   11cba:	e842                	sd	a6,16(sp)
   11cbc:	169350ef          	jal	ra,47624 <__bswapsi2>
   11cc0:	0005079b          	sext.w	a5,a0
   11cc4:	02092503          	lw	a0,32(s2)
   11cc8:	e43e                	sd	a5,8(sp)
   11cca:	15b350ef          	jal	ra,47624 <__bswapsi2>
   11cce:	6842                	ld	a6,16(sp)
   11cd0:	02051b13          	slli	s6,a0,0x20
   11cd4:	020b5b13          	srli	s6,s6,0x20
   11cd8:	00816503          	lwu	a0,8(sp)
   11cdc:	45a1                	li	a1,8
   11cde:	ec42                	sd	a6,24(sp)
   11ce0:	5280c0ef          	jal	ra,1e208 <__calloc>
   11ce4:	e82a                	sd	a0,16(sp)
   11ce6:	6862                	ld	a6,24(sp)
   11ce8:	2a050563          	beqz	a0,11f92 <_nl_load_domain+0x4b2>
   11cec:	67a2                	ld	a5,8(sp)
   11cee:	10078463          	beqz	a5,11df6 <_nl_load_domain+0x316>
   11cf2:	0006d6b7          	lui	a3,0x6d
   11cf6:	fff78e9b          	addiw	t4,a5,-1
   11cfa:	9106b783          	ld	a5,-1776(a3) # 6c910 <_GLOBAL_OFFSET_TABLE_+0x30>
   11cfe:	00890713          	addi	a4,s2,8
   11d02:	975a                	add	a4,a4,s6
   11d04:	01690633          	add	a2,s2,s6
   11d08:	0004cb37          	lui	s6,0x4c
   11d0c:	ed3e                	sd	a5,152(sp)
   11d0e:	398b0793          	addi	a5,s6,920 # 4c398 <_nl_default_default_domain+0x50>
   11d12:	1e82                	slli	t4,t4,0x20
   11d14:	e4be                	sd	a5,72(sp)
   11d16:	0004c7b7          	lui	a5,0x4c
   11d1a:	38078793          	addi	a5,a5,896 # 4c380 <_nl_default_default_domain+0x38>
   11d1e:	020ede93          	srli	t4,t4,0x20
   11d22:	0e8e                	slli	t4,t4,0x3
   11d24:	e8be                	sd	a5,80(sp)
   11d26:	0004c7b7          	lui	a5,0x4c
   11d2a:	3a078793          	addi	a5,a5,928 # 4c3a0 <_nl_default_default_domain+0x58>
   11d2e:	9eba                	add	t4,t4,a4
   11d30:	0004c737          	lui	a4,0x4c
   11d34:	ecbe                	sd	a5,88(sp)
   11d36:	3a870793          	addi	a5,a4,936 # 4c3a8 <_nl_default_default_domain+0x60>
   11d3a:	0004c737          	lui	a4,0x4c
   11d3e:	f0be                	sd	a5,96(sp)
   11d40:	38870793          	addi	a5,a4,904 # 4c388 <_nl_default_default_domain+0x40>
   11d44:	0004c737          	lui	a4,0x4c
   11d48:	f4be                	sd	a5,104(sp)
   11d4a:	37870793          	addi	a5,a4,888 # 4c378 <_nl_default_default_domain+0x30>
   11d4e:	0004c737          	lui	a4,0x4c
   11d52:	f8be                	sd	a5,112(sp)
   11d54:	39070793          	addi	a5,a4,912 # 4c390 <_nl_default_default_domain+0x48>
   11d58:	00065737          	lui	a4,0x65
   11d5c:	fcbe                	sd	a5,120(sp)
   11d5e:	5e070793          	addi	a5,a4,1504 # 655e0 <__PRETTY_FUNCTION__.10266+0x1b0>
   11d62:	0004c737          	lui	a4,0x4c
   11d66:	e13e                	sd	a5,128(sp)
   11d68:	65c2                	ld	a1,16(sp)
   11d6a:	35870793          	addi	a5,a4,856 # 4c358 <_nl_default_default_domain+0x10>
   11d6e:	0004c737          	lui	a4,0x4c
   11d72:	95041f37          	lui	t5,0x95041
   11d76:	e53e                	sd	a5,136(sp)
   11d78:	36070793          	addi	a5,a4,864 # 4c360 <_nl_default_default_domain+0x18>
   11d7c:	2def0f13          	addi	t5,t5,734 # ffffffff950412de <_end+0xffffffff94fd3256>
   11d80:	e93e                	sd	a5,144(sp)
   11d82:	4248                	lw	a0,4(a2)
   11d84:	00062b03          	lw	s6,0(a2)
   11d88:	33ea8763          	beq	s5,t5,120b6 <_nl_load_domain+0x5d6>
   11d8c:	fc7a                	sd	t5,56(sp)
   11d8e:	f842                	sd	a6,48(sp)
   11d90:	f432                	sd	a2,40(sp)
   11d92:	f02e                	sd	a1,32(sp)
   11d94:	ec76                	sd	t4,24(sp)
   11d96:	08f350ef          	jal	ra,47624 <__bswapsi2>
   11d9a:	02051b93          	slli	s7,a0,0x20
   11d9e:	855a                	mv	a0,s6
   11da0:	085350ef          	jal	ra,47624 <__bswapsi2>
   11da4:	6ee2                	ld	t4,24(sp)
   11da6:	7582                	ld	a1,32(sp)
   11da8:	7622                	ld	a2,40(sp)
   11daa:	7842                	ld	a6,48(sp)
   11dac:	7f62                	ld	t5,56(sp)
   11dae:	020bdb93          	srli	s7,s7,0x20
   11db2:	9bca                	add	s7,s7,s2
   11db4:	00050b1b          	sext.w	s6,a0
   11db8:	3e0b0c63          	beqz	s6,121b0 <_nl_load_domain+0x6d0>
   11dbc:	fffb071b          	addiw	a4,s6,-1
   11dc0:	1702                	slli	a4,a4,0x20
   11dc2:	9301                	srli	a4,a4,0x20
   11dc4:	975e                	add	a4,a4,s7
   11dc6:	00074f83          	lbu	t6,0(a4)
   11dca:	3e0f9363          	bnez	t6,121b0 <_nl_load_domain+0x6d0>
   11dce:	000bc503          	lbu	a0,0(s7)
   11dd2:	05000713          	li	a4,80
   11dd6:	2ee50663          	beq	a0,a4,120c2 <_nl_load_domain+0x5e2>
   11dda:	04900f93          	li	t6,73
   11dde:	4701                	li	a4,0
   11de0:	01f51663          	bne	a0,t6,11dec <_nl_load_domain+0x30c>
   11de4:	001bc683          	lbu	a3,1(s7)
   11de8:	e291                	bnez	a3,11dec <_nl_load_domain+0x30c>
   11dea:	6726                	ld	a4,72(sp)
   11dec:	e198                	sd	a4,0(a1)
   11dee:	0621                	addi	a2,a2,8
   11df0:	05a1                	addi	a1,a1,8
   11df2:	f8ce98e3          	bne	t4,a2,11d82 <_nl_load_domain+0x2a2>
   11df6:	95041737          	lui	a4,0x95041
   11dfa:	2de70713          	addi	a4,a4,734 # ffffffff950412de <_end+0xffffffff94fd3256>
   11dfe:	02892503          	lw	a0,40(s2)
   11e02:	02c92b03          	lw	s6,44(s2)
   11e06:	40ea8a63          	beq	s5,a4,1221a <_nl_load_domain+0x73a>
   11e0a:	ec42                	sd	a6,24(sp)
   11e0c:	019350ef          	jal	ra,47624 <__bswapsi2>
   11e10:	02051713          	slli	a4,a0,0x20
   11e14:	9301                	srli	a4,a4,0x20
   11e16:	00e907b3          	add	a5,s2,a4
   11e1a:	855a                	mv	a0,s6
   11e1c:	f8be                	sd	a5,112(sp)
   11e1e:	007350ef          	jal	ra,47624 <__bswapsi2>
   11e22:	6862                	ld	a6,24(sp)
   11e24:	1502                	slli	a0,a0,0x20
   11e26:	9101                	srli	a0,a0,0x20
   11e28:	6786                	ld	a5,64(sp)
   11e2a:	02081e13          	slli	t3,a6,0x20
   11e2e:	7646                	ld	a2,112(sp)
   11e30:	fff7871b          	addiw	a4,a5,-1
   11e34:	1702                	slli	a4,a4,0x20
   11e36:	9301                	srli	a4,a4,0x20
   11e38:	070a                	slli	a4,a4,0x2
   11e3a:	00a907b3          	add	a5,s2,a0
   11e3e:	0711                	addi	a4,a4,4
   11e40:	973e                	add	a4,a4,a5
   11e42:	020e5e13          	srli	t3,t3,0x20
   11e46:	f0be                	sd	a5,96(sp)
   11e48:	fc3e                	sd	a5,56(sp)
   11e4a:	950417b7          	lui	a5,0x95041
   11e4e:	002e1693          	slli	a3,t3,0x2
   11e52:	2de78793          	addi	a5,a5,734 # ffffffff950412de <_end+0xffffffff94fd3256>
   11e56:	e136                	sd	a3,128(sp)
   11e58:	e8b2                	sd	a2,80(sp)
   11e5a:	f4ba                	sd	a4,104(sp)
   11e5c:	ecb6                	sd	a3,88(sp)
   11e5e:	e482                	sd	zero,72(sp)
   11e60:	ec3e                	sd	a5,24(sp)
   11e62:	113c                	addi	a5,sp,168
   11e64:	f43e                	sd	a5,40(sp)
   11e66:	f002                	sd	zero,32(sp)
   11e68:	67e2                	ld	a5,24(sp)
   11e6a:	32fa8763          	beq	s5,a5,12198 <_nl_load_domain+0x6b8>
   11e6e:	7782                	ld	a5,32(sp)
   11e70:	72078b63          	beqz	a5,125a6 <_nl_load_domain+0xac6>
   11e74:	77e2                	ld	a5,56(sp)
   11e76:	4388                	lw	a0,0(a5)
   11e78:	7ac350ef          	jal	ra,47624 <__bswapsi2>
   11e7c:	02051693          	slli	a3,a0,0x20
   11e80:	9281                	srli	a3,a3,0x20
   11e82:	96ca                	add	a3,a3,s2
   11e84:	4688                	lw	a0,8(a3)
   11e86:	f836                	sd	a3,48(sp)
   11e88:	79c350ef          	jal	ra,47624 <__bswapsi2>
   11e8c:	0005071b          	sext.w	a4,a0
   11e90:	76c2                	ld	a3,48(sp)
   11e92:	0705                	addi	a4,a4,1
   11e94:	00e03733          	snez	a4,a4
   11e98:	4b01                	li	s6,0
   11e9a:	32071463          	bnez	a4,121c2 <_nl_load_domain+0x6e2>
   11e9e:	77a2                	ld	a5,40(sp)
   11ea0:	4705                	li	a4,1
   11ea2:	0167b023          	sd	s6,0(a5)
   11ea6:	07a1                	addi	a5,a5,8
   11ea8:	f43e                	sd	a5,40(sp)
   11eaa:	7782                	ld	a5,32(sp)
   11eac:	30e79863          	bne	a5,a4,121bc <_nl_load_domain+0x6dc>
   11eb0:	67a6                	ld	a5,72(sp)
   11eb2:	772a                	ld	a4,168(sp)
   11eb4:	76ca                	ld	a3,176(sp)
   11eb6:	2785                	addiw	a5,a5,1
   11eb8:	e4be                	sd	a5,72(sp)
   11eba:	67e6                	ld	a5,88(sp)
   11ebc:	9736                	add	a4,a4,a3
   11ebe:	97ba                	add	a5,a5,a4
   11ec0:	ecbe                	sd	a5,88(sp)
   11ec2:	6746                	ld	a4,80(sp)
   11ec4:	77e2                	ld	a5,56(sp)
   11ec6:	0711                	addi	a4,a4,4
   11ec8:	e8ba                	sd	a4,80(sp)
   11eca:	7726                	ld	a4,104(sp)
   11ecc:	0791                	addi	a5,a5,4
   11ece:	fc3e                	sd	a5,56(sp)
   11ed0:	f8f719e3          	bne	a4,a5,11e62 <_nl_load_domain+0x382>
   11ed4:	67a6                	ld	a5,72(sp)
   11ed6:	3e079b63          	bnez	a5,122cc <_nl_load_domain+0x7ec>
   11eda:	040ca023          	sw	zero,64(s9)
   11ede:	040cb423          	sd	zero,72(s9)
   11ee2:	040cb823          	sd	zero,80(s9)
   11ee6:	6542                	ld	a0,16(sp)
   11ee8:	7710b0ef          	jal	ra,1de58 <__free>
   11eec:	00000737          	lui	a4,0x0
   11ef0:	060cb823          	sd	zero,112(s9)
   11ef4:	060cbc23          	sd	zero,120(s9)
   11ef8:	00070713          	mv	a4,a4
   11efc:	cb01                	beqz	a4,11f0c <_nl_load_domain+0x42c>
   11efe:	4581                	li	a1,0
   11f00:	080c8513          	addi	a0,s9,128
   11f04:	fffee097          	auipc	ra,0xfffee
   11f08:	0fc080e7          	jalr	252(ra) # 0 <_nl_current_LC_CTYPE>
   11f0c:	0005d637          	lui	a2,0x5d
   11f10:	1118                	addi	a4,sp,160
   11f12:	4681                	li	a3,0
   11f14:	86060613          	addi	a2,a2,-1952 # 5c860 <step3b_jumps.11844+0x1e0>
   11f18:	85a6                	mv	a1,s1
   11f1a:	8562                	mv	a0,s8
   11f1c:	c4dfe0ef          	jal	ra,10b68 <_nl_find_msg>
   11f20:	577d                	li	a4,-1
   11f22:	04e50d63          	beq	a0,a4,11f7c <_nl_load_domain+0x49c>
   11f26:	0c0c8613          	addi	a2,s9,192
   11f2a:	0b8c8593          	addi	a1,s9,184
   11f2e:	757010ef          	jal	ra,13e84 <__gettext_extract_plural>
   11f32:	004d2783          	lw	a5,4(s10)
   11f36:	b905                	j	11b66 <_nl_load_domain+0x86>
   11f38:	11818513          	addi	a0,gp,280 # 6d220 <lock.9411>
   11f3c:	16c100ef          	jal	ra,220a8 <__lll_lock_wait_private>
   11f40:	bec5                	j	11b30 <_nl_load_domain+0x50>
   11f42:	01551763          	bne	a0,s5,11f50 <_nl_load_domain+0x470>
   11f46:	02022783          	lw	a5,32(tp) # 20 <__libc_errno>
   11f4a:	4711                	li	a4,4
   11f4c:	06e78f63          	beq	a5,a4,11fca <_nl_load_domain+0x4ea>
   11f50:	8552                	mv	a0,s4
   11f52:	72f0e0ef          	jal	ra,20e80 <__close_nocancel>
   11f56:	004d2783          	lw	a5,4(s10)
   11f5a:	b131                	j	11b66 <_nl_load_domain+0x86>
   11f5c:	1bc2                	slli	s7,s7,0x30
   11f5e:	060cb023          	sd	zero,96(s9)
   11f62:	076ca423          	sw	s6,104(s9)
   11f66:	030bdb93          	srli	s7,s7,0x30
   11f6a:	020b9463          	bnez	s7,11f92 <_nl_load_domain+0x4b2>
   11f6e:	040ca023          	sw	zero,64(s9)
   11f72:	040cb423          	sd	zero,72(s9)
   11f76:	040cb823          	sd	zero,80(s9)
   11f7a:	bf8d                	j	11eec <_nl_load_domain+0x40c>
   11f7c:	00000737          	lui	a4,0x0
   11f80:	00070713          	mv	a4,a4
   11f84:	c719                	beqz	a4,11f92 <_nl_load_domain+0x4b2>
   11f86:	080c8513          	addi	a0,s9,128
   11f8a:	fffee097          	auipc	ra,0xfffee
   11f8e:	076080e7          	jalr	118(ra) # 0 <_nl_current_LC_CTYPE>
   11f92:	020cb503          	ld	a0,32(s9)
   11f96:	6c30b0ef          	jal	ra,1de58 <__free>
   11f9a:	100a0a63          	beqz	s4,120ae <_nl_load_domain+0x5ce>
   11f9e:	85ce                	mv	a1,s3
   11fa0:	854a                	mv	a0,s2
   11fa2:	4120f0ef          	jal	ra,213b4 <__munmap>
   11fa6:	8566                	mv	a0,s9
   11fa8:	6b10b0ef          	jal	ra,1de58 <__free>
   11fac:	004d2783          	lw	a5,4(s10)
   11fb0:	000c3823          	sd	zero,16(s8)
   11fb4:	be4d                	j	11b66 <_nl_load_domain+0x86>
   11fb6:	4501                	li	a0,0
   11fb8:	bff9                	j	11f96 <_nl_load_domain+0x4b6>
   11fba:	854e                	mv	a0,s3
   11fbc:	2250b0ef          	jal	ra,1d9e0 <__libc_malloc>
   11fc0:	892a                	mv	s2,a0
   11fc2:	d559                	beqz	a0,11f50 <_nl_load_domain+0x470>
   11fc4:	8baa                	mv	s7,a0
   11fc6:	8cce                	mv	s9,s3
   11fc8:	5afd                	li	s5,-1
   11fca:	8666                	mv	a2,s9
   11fcc:	85de                	mv	a1,s7
   11fce:	8552                	mv	a0,s4
   11fd0:	4330e0ef          	jal	ra,20c02 <__read_nocancel>
   11fd4:	f6a057e3          	blez	a0,11f42 <_nl_load_domain+0x462>
   11fd8:	40ac8cb3          	sub	s9,s9,a0
   11fdc:	9baa                	add	s7,s7,a0
   11fde:	fe0c96e3          	bnez	s9,11fca <_nl_load_domain+0x4ea>
   11fe2:	8552                	mv	a0,s4
   11fe4:	69d0e0ef          	jal	ra,20e80 <__close_nocancel>
   11fe8:	00092703          	lw	a4,0(s2)
   11fec:	950417b7          	lui	a5,0x95041
   11ff0:	2de78793          	addi	a5,a5,734 # ffffffff950412de <_end+0xffffffff94fd3256>
   11ff4:	4a01                	li	s4,0
   11ff6:	c0f70de3          	beq	a4,a5,11c10 <_nl_load_domain+0x130>
   11ffa:	de1207b7          	lui	a5,0xde120
   11ffe:	49578793          	addi	a5,a5,1173 # ffffffffde120495 <_end+0xffffffffde0b240d>
   12002:	22f71763          	bne	a4,a5,12230 <_nl_load_domain+0x750>
   12006:	0c800513          	li	a0,200
   1200a:	1d70b0ef          	jal	ra,1d9e0 <__libc_malloc>
   1200e:	8caa                	mv	s9,a0
   12010:	b40509e3          	beqz	a0,11b62 <_nl_load_domain+0x82>
   12014:	00492503          	lw	a0,4(s2)
   12018:	4705                	li	a4,1
   1201a:	00ecac23          	sw	a4,24(s9)
   1201e:	019c3823          	sd	s9,16(s8)
   12022:	012cb023          	sd	s2,0(s9)
   12026:	014ca423          	sw	s4,8(s9)
   1202a:	013cb823          	sd	s3,16(s9)
   1202e:	020cb023          	sd	zero,32(s9)
   12032:	5f2350ef          	jal	ra,47624 <__bswapsi2>
   12036:	4105569b          	sraiw	a3,a0,0x10
   1203a:	4705                	li	a4,1
   1203c:	00050b9b          	sext.w	s7,a0
   12040:	f6d76be3          	bltu	a4,a3,11fb6 <_nl_load_domain+0x4d6>
   12044:	00892503          	lw	a0,8(s2)
   12048:	4b05                	li	s6,1
   1204a:	5da350ef          	jal	ra,47624 <__bswapsi2>
   1204e:	02aca423          	sw	a0,40(s9)
   12052:	00c92503          	lw	a0,12(s2)
   12056:	5ce350ef          	jal	ra,47624 <__bswapsi2>
   1205a:	02051713          	slli	a4,a0,0x20
   1205e:	9301                	srli	a4,a4,0x20
   12060:	01092503          	lw	a0,16(s2)
   12064:	974a                	add	a4,a4,s2
   12066:	02ecb823          	sd	a4,48(s9)
   1206a:	5ba350ef          	jal	ra,47624 <__bswapsi2>
   1206e:	02051713          	slli	a4,a0,0x20
   12072:	9301                	srli	a4,a4,0x20
   12074:	01492503          	lw	a0,20(s2)
   12078:	974a                	add	a4,a4,s2
   1207a:	02ecbc23          	sd	a4,56(s9)
   1207e:	5a6350ef          	jal	ra,47624 <__bswapsi2>
   12082:	0005081b          	sext.w	a6,a0
   12086:	04acac23          	sw	a0,88(s9)
   1208a:	4709                	li	a4,2
   1208c:	ed0778e3          	bleu	a6,a4,11f5c <_nl_load_domain+0x47c>
   12090:	01892503          	lw	a0,24(s2)
   12094:	e442                	sd	a6,8(sp)
   12096:	de120ab7          	lui	s5,0xde120
   1209a:	58a350ef          	jal	ra,47624 <__bswapsi2>
   1209e:	02051713          	slli	a4,a0,0x20
   120a2:	4b05                	li	s6,1
   120a4:	9301                	srli	a4,a4,0x20
   120a6:	495a8a93          	addi	s5,s5,1173 # ffffffffde120495 <_end+0xffffffffde0b240d>
   120aa:	6822                	ld	a6,8(sp)
   120ac:	b6f1                	j	11c78 <_nl_load_domain+0x198>
   120ae:	854a                	mv	a0,s2
   120b0:	5a90b0ef          	jal	ra,1de58 <__free>
   120b4:	bdcd                	j	11fa6 <_nl_load_domain+0x4c6>
   120b6:	02051693          	slli	a3,a0,0x20
   120ba:	9281                	srli	a3,a3,0x20
   120bc:	00d90bb3          	add	s7,s2,a3
   120c0:	b9e5                	j	11db8 <_nl_load_domain+0x2d8>
   120c2:	001bc283          	lbu	t0,1(s7)
   120c6:	05200513          	li	a0,82
   120ca:	4701                	li	a4,0
   120cc:	d2a290e3          	bne	t0,a0,11dec <_nl_load_domain+0x30c>
   120d0:	002bc283          	lbu	t0,2(s7)
   120d4:	04900513          	li	a0,73
   120d8:	877e                	mv	a4,t6
   120da:	d0a299e3          	bne	t0,a0,11dec <_nl_load_domain+0x30c>
   120de:	003bc503          	lbu	a0,3(s7)
   120e2:	02000393          	li	t2,32
   120e6:	fa85029b          	addiw	t0,a0,-88
   120ea:	0ff2f293          	andi	t0,t0,255
   120ee:	ce53efe3          	bltu	t2,t0,11dec <_nl_load_domain+0x30c>
   120f2:	67ea                	ld	a5,152(sp)
   120f4:	0057d2b3          	srl	t0,a5,t0
   120f8:	0012f293          	andi	t0,t0,1
   120fc:	ce0288e3          	beqz	t0,11dec <_nl_load_domain+0x30c>
   12100:	004bcf83          	lbu	t6,4(s7)
   12104:	03800293          	li	t0,56
   12108:	125f8a63          	beq	t6,t0,1223c <_nl_load_domain+0x75c>
   1210c:	03100293          	li	t0,49
   12110:	165f8763          	beq	t6,t0,1227e <_nl_load_domain+0x79e>
   12114:	03300713          	li	a4,51
   12118:	52ef9263          	bne	t6,a4,1263c <_nl_load_domain+0xb5c>
   1211c:	005bc283          	lbu	t0,5(s7)
   12120:	03200f93          	li	t6,50
   12124:	4701                	li	a4,0
   12126:	cdf293e3          	bne	t0,t6,11dec <_nl_load_domain+0x30c>
   1212a:	006bc683          	lbu	a3,6(s7)
   1212e:	ca069fe3          	bnez	a3,11dec <_nl_load_domain+0x30c>
   12132:	06400713          	li	a4,100
   12136:	50e50063          	beq	a0,a4,12636 <_nl_load_domain+0xb56>
   1213a:	06900713          	li	a4,105
   1213e:	4ae50063          	beq	a0,a4,125de <_nl_load_domain+0xafe>
   12142:	06f00713          	li	a4,111
   12146:	48e50963          	beq	a0,a4,125d8 <_nl_load_domain+0xaf8>
   1214a:	07500713          	li	a4,117
   1214e:	46e50f63          	beq	a0,a4,125cc <_nl_load_domain+0xaec>
   12152:	07800713          	li	a4,120
   12156:	46e50563          	beq	a0,a4,125c0 <_nl_load_domain+0xae0>
   1215a:	05800713          	li	a4,88
   1215e:	4ae51863          	bne	a0,a4,1260e <_nl_load_domain+0xb2e>
   12162:	0005d737          	lui	a4,0x5d
   12166:	83070713          	addi	a4,a4,-2000 # 5c830 <step3b_jumps.11844+0x1b0>
   1216a:	b149                	j	11dec <_nl_load_domain+0x30c>
   1216c:	de1207b7          	lui	a5,0xde120
   12170:	49578793          	addi	a5,a5,1173 # ffffffffde120495 <_end+0xffffffffde0b240d>
   12174:	e8f709e3          	beq	a4,a5,12006 <_nl_load_domain+0x526>
   12178:	85ce                	mv	a1,s3
   1217a:	854a                	mv	a0,s2
   1217c:	2380f0ef          	jal	ra,213b4 <__munmap>
   12180:	004d2783          	lw	a5,4(s10)
   12184:	b2cd                	j	11b66 <_nl_load_domain+0x86>
   12186:	6786                	ld	a5,64(sp)
   12188:	de0783e3          	beqz	a5,11f6e <_nl_load_domain+0x48e>
   1218c:	01c92783          	lw	a5,28(s2)
   12190:	02096b03          	lwu	s6,32(s2)
   12194:	e43e                	sd	a5,8(sp)
   12196:	b689                	j	11cd8 <_nl_load_domain+0x1f8>
   12198:	7782                	ld	a5,32(sp)
   1219a:	40078963          	beqz	a5,125ac <_nl_load_domain+0xacc>
   1219e:	77e2                	ld	a5,56(sp)
   121a0:	0007e683          	lwu	a3,0(a5)
   121a4:	96ca                	add	a3,a3,s2
   121a6:	4698                	lw	a4,8(a3)
   121a8:	0705                	addi	a4,a4,1
   121aa:	00e03733          	snez	a4,a4
   121ae:	b1ed                	j	11e98 <_nl_load_domain+0x3b8>
   121b0:	6542                	ld	a0,16(sp)
   121b2:	4a70b0ef          	jal	ra,1de58 <__free>
   121b6:	020cb503          	ld	a0,32(s9)
   121ba:	bbf1                	j	11f96 <_nl_load_domain+0x4b6>
   121bc:	4785                	li	a5,1
   121be:	f03e                	sd	a5,32(sp)
   121c0:	b165                	j	11e68 <_nl_load_domain+0x388>
   121c2:	00468b93          	addi	s7,a3,4
   121c6:	a83d                	j	12204 <_nl_load_domain+0x724>
   121c8:	f83a                	sd	a4,48(sp)
   121ca:	45a350ef          	jal	ra,47624 <__bswapsi2>
   121ce:	7742                	ld	a4,48(sp)
   121d0:	02051613          	slli	a2,a0,0x20
   121d4:	9201                	srli	a2,a2,0x20
   121d6:	853a                	mv	a0,a4
   121d8:	9b32                	add	s6,s6,a2
   121da:	44a350ef          	jal	ra,47624 <__bswapsi2>
   121de:	0005071b          	sext.w	a4,a0
   121e2:	57fd                	li	a5,-1
   121e4:	caf70de3          	beq	a4,a5,11e9e <_nl_load_domain+0x3be>
   121e8:	67a2                	ld	a5,8(sp)
   121ea:	fcf773e3          	bleu	a5,a4,121b0 <_nl_load_domain+0x6d0>
   121ee:	67c2                	ld	a5,16(sp)
   121f0:	1702                	slli	a4,a4,0x20
   121f2:	8375                	srli	a4,a4,0x1d
   121f4:	973e                	add	a4,a4,a5
   121f6:	6308                	ld	a0,0(a4)
   121f8:	cc0505e3          	beqz	a0,11ec2 <_nl_load_domain+0x3e2>
   121fc:	41d0c0ef          	jal	ra,1ee18 <strlen>
   12200:	9b2a                	add	s6,s6,a0
   12202:	0ba1                	addi	s7,s7,8
   12204:	67e2                	ld	a5,24(sp)
   12206:	000ba503          	lw	a0,0(s7)
   1220a:	004ba703          	lw	a4,4(s7)
   1220e:	fafa9de3          	bne	s5,a5,121c8 <_nl_load_domain+0x6e8>
   12212:	1502                	slli	a0,a0,0x20
   12214:	9101                	srli	a0,a0,0x20
   12216:	9b2a                	add	s6,s6,a0
   12218:	b7e9                	j	121e2 <_nl_load_domain+0x702>
   1221a:	1502                	slli	a0,a0,0x20
   1221c:	9101                	srli	a0,a0,0x20
   1221e:	00a907b3          	add	a5,s2,a0
   12222:	020b1513          	slli	a0,s6,0x20
   12226:	f8be                	sd	a5,112(sp)
   12228:	9101                	srli	a0,a0,0x20
   1222a:	befd                	j	11e28 <_nl_load_domain+0x348>
   1222c:	79f0f0ef          	jal	ra,221ca <__stack_chk_fail>
   12230:	854a                	mv	a0,s2
   12232:	4270b0ef          	jal	ra,1de58 <__free>
   12236:	004d2783          	lw	a5,4(s10)
   1223a:	b235                	j	11b66 <_nl_load_domain+0x86>
   1223c:	005bc683          	lbu	a3,5(s7)
   12240:	ba0696e3          	bnez	a3,11dec <_nl_load_domain+0x30c>
   12244:	06400713          	li	a4,100
   12248:	34e50c63          	beq	a0,a4,125a0 <_nl_load_domain+0xac0>
   1224c:	06900713          	li	a4,105
   12250:	3ee50063          	beq	a0,a4,12630 <_nl_load_domain+0xb50>
   12254:	06f00713          	li	a4,111
   12258:	38e50c63          	beq	a0,a4,125f0 <_nl_load_domain+0xb10>
   1225c:	07500713          	li	a4,117
   12260:	38e50263          	beq	a0,a4,125e4 <_nl_load_domain+0xb04>
   12264:	07800713          	li	a4,120
   12268:	38e50d63          	beq	a0,a4,12602 <_nl_load_domain+0xb22>
   1226c:	05800713          	li	a4,88
   12270:	38e51f63          	bne	a0,a4,1260e <_nl_load_domain+0xb2e>
   12274:	0005d737          	lui	a4,0x5d
   12278:	83070713          	addi	a4,a4,-2000 # 5c830 <step3b_jumps.11844+0x1b0>
   1227c:	be85                	j	11dec <_nl_load_domain+0x30c>
   1227e:	005bc283          	lbu	t0,5(s7)
   12282:	03600f93          	li	t6,54
   12286:	b7f293e3          	bne	t0,t6,11dec <_nl_load_domain+0x30c>
   1228a:	006bc703          	lbu	a4,6(s7)
   1228e:	32071363          	bnez	a4,125b4 <_nl_load_domain+0xad4>
   12292:	06400713          	li	a4,100
   12296:	32e50263          	beq	a0,a4,125ba <_nl_load_domain+0xada>
   1229a:	06900713          	li	a4,105
   1229e:	34e50f63          	beq	a0,a4,125fc <_nl_load_domain+0xb1c>
   122a2:	06f00713          	li	a4,111
   122a6:	34e50863          	beq	a0,a4,125f6 <_nl_load_domain+0xb16>
   122aa:	07500713          	li	a4,117
   122ae:	36e50863          	beq	a0,a4,1261e <_nl_load_domain+0xb3e>
   122b2:	07800713          	li	a4,120
   122b6:	34e50e63          	beq	a0,a4,12612 <_nl_load_domain+0xb32>
   122ba:	05800713          	li	a4,88
   122be:	34e51863          	bne	a0,a4,1260e <_nl_load_domain+0xb2e>
   122c2:	0005d737          	lui	a4,0x5d
   122c6:	83070713          	addi	a4,a4,-2000 # 5c830 <step3b_jumps.11844+0x1b0>
   122ca:	b60d                	j	11dec <_nl_load_domain+0x30c>
   122cc:	0017951b          	slliw	a0,a5,0x1
   122d0:	67e6                	ld	a5,88(sp)
   122d2:	1502                	slli	a0,a0,0x20
   122d4:	8171                	srli	a0,a0,0x1c
   122d6:	953e                	add	a0,a0,a5
   122d8:	7080b0ef          	jal	ra,1d9e0 <__libc_malloc>
   122dc:	f82a                	sd	a0,48(sp)
   122de:	ca050ae3          	beqz	a0,11f92 <_nl_load_domain+0x4b2>
   122e2:	04816a83          	lwu	s5,72(sp)
   122e6:	7742                	ld	a4,48(sp)
   122e8:	f482                	sd	zero,104(sp)
   122ea:	0a92                	slli	s5,s5,0x4
   122ec:	015707b3          	add	a5,a4,s5
   122f0:	9abe                	add	s5,s5,a5
   122f2:	fcbe                	sd	a5,120(sp)
   122f4:	678a                	ld	a5,128(sp)
   122f6:	02ecb023          	sd	a4,32(s9)
   122fa:	f002                	sd	zero,32(sp)
   122fc:	97d6                	add	a5,a5,s5
   122fe:	e43e                	sd	a5,8(sp)
   12300:	77a6                	ld	a5,104(sp)
   12302:	018cab83          	lw	s7,24(s9)
   12306:	f402                	sd	zero,40(sp)
   12308:	00279713          	slli	a4,a5,0x2
   1230c:	77c6                	ld	a5,112(sp)
   1230e:	97ba                	add	a5,a5,a4
   12310:	fc3e                	sd	a5,56(sp)
   12312:	77a2                	ld	a5,40(sp)
   12314:	100b8063          	beqz	s7,12414 <_nl_load_domain+0x934>
   12318:	30078963          	beqz	a5,1262a <_nl_load_domain+0xb4a>
   1231c:	7786                	ld	a5,96(sp)
   1231e:	4388                	lw	a0,0(a5)
   12320:	304350ef          	jal	ra,47624 <__bswapsi2>
   12324:	1502                	slli	a0,a0,0x20
   12326:	9101                	srli	a0,a0,0x20
   12328:	00a90b33          	add	s6,s2,a0
   1232c:	008b2503          	lw	a0,8(s6)
   12330:	2f4350ef          	jal	ra,47624 <__bswapsi2>
   12334:	0005071b          	sext.w	a4,a0
   12338:	0705                	addi	a4,a4,1
   1233a:	00e03733          	snez	a4,a4
   1233e:	0e071b63          	bnez	a4,12434 <_nl_load_domain+0x954>
   12342:	77a2                	ld	a5,40(sp)
   12344:	4705                	li	a4,1
   12346:	0ee79463          	bne	a5,a4,1242e <_nl_load_domain+0x94e>
   1234a:	02016703          	lwu	a4,32(sp)
   1234e:	77c2                	ld	a5,48(sp)
   12350:	e882                	sd	zero,80(sp)
   12352:	0712                	slli	a4,a4,0x4
   12354:	97ba                	add	a5,a5,a4
   12356:	e13e                	sd	a5,128(sp)
   12358:	77e6                	ld	a5,120(sp)
   1235a:	97ba                	add	a5,a5,a4
   1235c:	e53e                	sd	a5,136(sp)
   1235e:	67c6                	ld	a5,80(sp)
   12360:	0e0b8f63          	beqz	s7,1245e <_nl_load_domain+0x97e>
   12364:	32078a63          	beqz	a5,12698 <_nl_load_domain+0xbb8>
   12368:	7786                	ld	a5,96(sp)
   1236a:	6b2a                	ld	s6,136(sp)
   1236c:	4388                	lw	a0,0(a5)
   1236e:	2b6350ef          	jal	ra,47624 <__bswapsi2>
   12372:	02051713          	slli	a4,a0,0x20
   12376:	9301                	srli	a4,a4,0x20
   12378:	974a                	add	a4,a4,s2
   1237a:	4308                	lw	a0,0(a4)
   1237c:	ecba                	sd	a4,88(sp)
   1237e:	2a6350ef          	jal	ra,47624 <__bswapsi2>
   12382:	6766                	ld	a4,88(sp)
   12384:	1502                	slli	a0,a0,0x20
   12386:	9101                	srli	a0,a0,0x20
   12388:	00a907b3          	add	a5,s2,a0
   1238c:	4708                	lw	a0,8(a4)
   1238e:	ec3e                	sd	a5,24(sp)
   12390:	ecba                	sd	a4,88(sp)
   12392:	292350ef          	jal	ra,47624 <__bswapsi2>
   12396:	6766                	ld	a4,88(sp)
   12398:	2501                	sext.w	a0,a0
   1239a:	57fd                	li	a5,-1
   1239c:	4354                	lw	a3,4(a4)
   1239e:	0ef51363          	bne	a0,a5,12484 <_nl_load_domain+0x9a4>
   123a2:	8536                	mv	a0,a3
   123a4:	280350ef          	jal	ra,47624 <__bswapsi2>
   123a8:	1502                	slli	a0,a0,0x20
   123aa:	9101                	srli	a0,a0,0x20
   123ac:	67e2                	ld	a5,24(sp)
   123ae:	00ab3023          	sd	a0,0(s6)
   123b2:	00fb3423          	sd	a5,8(s6)
   123b6:	67c6                	ld	a5,80(sp)
   123b8:	4705                	li	a4,1
   123ba:	2ee79363          	bne	a5,a4,126a0 <_nl_load_domain+0xbc0>
   123be:	7782                	ld	a5,32(sp)
   123c0:	2785                	addiw	a5,a5,1
   123c2:	f03e                	sd	a5,32(sp)
   123c4:	77a6                	ld	a5,104(sp)
   123c6:	0785                	addi	a5,a5,1
   123c8:	f4be                	sd	a5,104(sp)
   123ca:	0007871b          	sext.w	a4,a5
   123ce:	7786                	ld	a5,96(sp)
   123d0:	0791                	addi	a5,a5,4
   123d2:	f0be                	sd	a5,96(sp)
   123d4:	6786                	ld	a5,64(sp)
   123d6:	f2f765e3          	bltu	a4,a5,12300 <_nl_load_domain+0x820>
   123da:	67a6                	ld	a5,72(sp)
   123dc:	7702                	ld	a4,32(sp)
   123de:	22e79863          	bne	a5,a4,1260e <_nl_load_domain+0xb2e>
   123e2:	058cab83          	lw	s7,88(s9)
   123e6:	8b56                	mv	s6,s5
   123e8:	4781                	li	a5,0
   123ea:	12fb8b63          	beq	s7,a5,12520 <_nl_load_domain+0xa40>
   123ee:	060cb703          	ld	a4,96(s9)
   123f2:	068ca683          	lw	a3,104(s9)
   123f6:	415b0633          	sub	a2,s6,s5
   123fa:	9732                	add	a4,a4,a2
   123fc:	4308                	lw	a0,0(a4)
   123fe:	c691                	beqz	a3,1240a <_nl_load_domain+0x92a>
   12400:	e43e                	sd	a5,8(sp)
   12402:	222350ef          	jal	ra,47624 <__bswapsi2>
   12406:	67a2                	ld	a5,8(sp)
   12408:	2501                	sext.w	a0,a0
   1240a:	00ab2023          	sw	a0,0(s6)
   1240e:	2785                	addiw	a5,a5,1
   12410:	0b11                	addi	s6,s6,4
   12412:	bfe1                	j	123ea <_nl_load_domain+0x90a>
   12414:	26078e63          	beqz	a5,12690 <_nl_load_domain+0xbb0>
   12418:	7786                	ld	a5,96(sp)
   1241a:	0007e783          	lwu	a5,0(a5)
   1241e:	00f90b33          	add	s6,s2,a5
   12422:	008b2703          	lw	a4,8(s6)
   12426:	0705                	addi	a4,a4,1
   12428:	00e03733          	snez	a4,a4
   1242c:	bf09                	j	1233e <_nl_load_domain+0x85e>
   1242e:	4785                	li	a5,1
   12430:	f43e                	sd	a5,40(sp)
   12432:	b5c5                	j	12312 <_nl_load_domain+0x832>
   12434:	0b11                	addi	s6,s6,4
   12436:	a809                	j	12448 <_nl_load_domain+0x968>
   12438:	67c2                	ld	a5,16(sp)
   1243a:	02051713          	slli	a4,a0,0x20
   1243e:	8375                	srli	a4,a4,0x1d
   12440:	973e                	add	a4,a4,a5
   12442:	6318                	ld	a4,0(a4)
   12444:	d341                	beqz	a4,123c4 <_nl_load_domain+0x8e4>
   12446:	0b21                	addi	s6,s6,8
   12448:	004b2503          	lw	a0,4(s6)
   1244c:	000b8563          	beqz	s7,12456 <_nl_load_domain+0x976>
   12450:	1d4350ef          	jal	ra,47624 <__bswapsi2>
   12454:	2501                	sext.w	a0,a0
   12456:	57fd                	li	a5,-1
   12458:	fef510e3          	bne	a0,a5,12438 <_nl_load_domain+0x958>
   1245c:	b5dd                	j	12342 <_nl_load_domain+0x862>
   1245e:	24078663          	beqz	a5,126aa <_nl_load_domain+0xbca>
   12462:	7786                	ld	a5,96(sp)
   12464:	6b2a                	ld	s6,136(sp)
   12466:	0007e703          	lwu	a4,0(a5)
   1246a:	974a                	add	a4,a4,s2
   1246c:	00076783          	lwu	a5,0(a4)
   12470:	97ca                	add	a5,a5,s2
   12472:	ec3e                	sd	a5,24(sp)
   12474:	4714                	lw	a3,8(a4)
   12476:	57fd                	li	a5,-1
   12478:	4348                	lw	a0,4(a4)
   1247a:	00f69563          	bne	a3,a5,12484 <_nl_load_domain+0x9a4>
   1247e:	1502                	slli	a0,a0,0x20
   12480:	9101                	srli	a0,a0,0x20
   12482:	b72d                	j	123ac <_nl_load_domain+0x8cc>
   12484:	67a2                	ld	a5,8(sp)
   12486:	00fb3423          	sd	a5,8(s6)
   1248a:	00470793          	addi	a5,a4,4
   1248e:	ecbe                	sd	a5,88(sp)
   12490:	67e6                	ld	a5,88(sp)
   12492:	4394                	lw	a3,0(a5)
   12494:	43d8                	lw	a4,4(a5)
   12496:	020b8063          	beqz	s7,124b6 <_nl_load_domain+0x9d6>
   1249a:	8536                	mv	a0,a3
   1249c:	ed3a                	sd	a4,152(sp)
   1249e:	186350ef          	jal	ra,47624 <__bswapsi2>
   124a2:	676a                	ld	a4,152(sp)
   124a4:	0005069b          	sext.w	a3,a0
   124a8:	e936                	sd	a3,144(sp)
   124aa:	853a                	mv	a0,a4
   124ac:	178350ef          	jal	ra,47624 <__bswapsi2>
   124b0:	66ca                	ld	a3,144(sp)
   124b2:	0005071b          	sext.w	a4,a0
   124b6:	c29d                	beqz	a3,124dc <_nl_load_domain+0x9fc>
   124b8:	1682                	slli	a3,a3,0x20
   124ba:	65e2                	ld	a1,24(sp)
   124bc:	6522                	ld	a0,8(sp)
   124be:	9281                	srli	a3,a3,0x20
   124c0:	8636                	mv	a2,a3
   124c2:	ed3a                	sd	a4,152(sp)
   124c4:	e936                	sd	a3,144(sp)
   124c6:	7f40d0ef          	jal	ra,1fcba <memcpy>
   124ca:	67a2                	ld	a5,8(sp)
   124cc:	66ca                	ld	a3,144(sp)
   124ce:	00d78733          	add	a4,a5,a3
   124d2:	67e2                	ld	a5,24(sp)
   124d4:	e43a                	sd	a4,8(sp)
   124d6:	676a                	ld	a4,152(sp)
   124d8:	97b6                	add	a5,a5,a3
   124da:	ec3e                	sd	a5,24(sp)
   124dc:	57fd                	li	a5,-1
   124de:	02f70963          	beq	a4,a5,12510 <_nl_load_domain+0xa30>
   124e2:	67c2                	ld	a5,16(sp)
   124e4:	1702                	slli	a4,a4,0x20
   124e6:	8375                	srli	a4,a4,0x1d
   124e8:	973e                	add	a4,a4,a5
   124ea:	630c                	ld	a1,0(a4)
   124ec:	67e6                	ld	a5,88(sp)
   124ee:	852e                	mv	a0,a1
   124f0:	07a1                	addi	a5,a5,8
   124f2:	ecbe                	sd	a5,88(sp)
   124f4:	ed2e                	sd	a1,152(sp)
   124f6:	1230c0ef          	jal	ra,1ee18 <strlen>
   124fa:	862a                	mv	a2,a0
   124fc:	e92a                	sd	a0,144(sp)
   124fe:	65ea                	ld	a1,152(sp)
   12500:	6522                	ld	a0,8(sp)
   12502:	7b80d0ef          	jal	ra,1fcba <memcpy>
   12506:	67a2                	ld	a5,8(sp)
   12508:	674a                	ld	a4,144(sp)
   1250a:	97ba                	add	a5,a5,a4
   1250c:	e43e                	sd	a5,8(sp)
   1250e:	b749                	j	12490 <_nl_load_domain+0x9b0>
   12510:	008b3703          	ld	a4,8(s6)
   12514:	67a2                	ld	a5,8(sp)
   12516:	40e78733          	sub	a4,a5,a4
   1251a:	00eb3023          	sd	a4,0(s6)
   1251e:	bd61                	j	123b6 <_nl_load_domain+0x8d6>
   12520:	77c2                	ld	a5,48(sp)
   12522:	4b01                	li	s6,0
   12524:	00878b93          	addi	s7,a5,8
   12528:	000bb503          	ld	a0,0(s7)
   1252c:	23b010ef          	jal	ra,13f66 <__hash_string>
   12530:	058ca703          	lw	a4,88(s9)
   12534:	2501                	sext.w	a0,a0
   12536:	02e576bb          	remuw	a3,a0,a4
   1253a:	ffe7061b          	addiw	a2,a4,-2
   1253e:	02c5763b          	remuw	a2,a0,a2
   12542:	2605                	addiw	a2,a2,1
   12544:	40c70e3b          	subw	t3,a4,a2
   12548:	40e605bb          	subw	a1,a2,a4
   1254c:	02069713          	slli	a4,a3,0x20
   12550:	8379                	srli	a4,a4,0x1e
   12552:	9756                	add	a4,a4,s5
   12554:	4308                	lw	a0,0(a4)
   12556:	c911                	beqz	a0,1256a <_nl_load_domain+0xa8a>
   12558:	05c6e263          	bltu	a3,t3,1259c <_nl_load_domain+0xabc>
   1255c:	9ead                	addw	a3,a3,a1
   1255e:	02069713          	slli	a4,a3,0x20
   12562:	8379                	srli	a4,a4,0x1e
   12564:	9756                	add	a4,a4,s5
   12566:	4308                	lw	a0,0(a4)
   12568:	f965                	bnez	a0,12558 <_nl_load_domain+0xa78>
   1256a:	028ca683          	lw	a3,40(s9)
   1256e:	7782                	ld	a5,32(sp)
   12570:	0bc1                	addi	s7,s7,16
   12572:	2685                	addiw	a3,a3,1
   12574:	016686bb          	addw	a3,a3,s6
   12578:	c314                	sw	a3,0(a4)
   1257a:	2b05                	addiw	s6,s6,1
   1257c:	fb6796e3          	bne	a5,s6,12528 <_nl_load_domain+0xa48>
   12580:	7782                	ld	a5,32(sp)
   12582:	075cb023          	sd	s5,96(s9)
   12586:	060ca423          	sw	zero,104(s9)
   1258a:	04fca023          	sw	a5,64(s9)
   1258e:	77c2                	ld	a5,48(sp)
   12590:	04fcb423          	sd	a5,72(s9)
   12594:	77e6                	ld	a5,120(sp)
   12596:	04fcb823          	sd	a5,80(s9)
   1259a:	b2b1                	j	11ee6 <_nl_load_domain+0x406>
   1259c:	9eb1                	addw	a3,a3,a2
   1259e:	b77d                	j	1254c <_nl_load_domain+0xa6c>
   125a0:	670a                	ld	a4,128(sp)
   125a2:	84bff06f          	j	11dec <_nl_load_domain+0x30c>
   125a6:	67c6                	ld	a5,80(sp)
   125a8:	4388                	lw	a0,0(a5)
   125aa:	b0f9                	j	11e78 <_nl_load_domain+0x398>
   125ac:	67c6                	ld	a5,80(sp)
   125ae:	0007e683          	lwu	a3,0(a5)
   125b2:	becd                	j	121a4 <_nl_load_domain+0x6c4>
   125b4:	4701                	li	a4,0
   125b6:	837ff06f          	j	11dec <_nl_load_domain+0x30c>
   125ba:	670a                	ld	a4,128(sp)
   125bc:	831ff06f          	j	11dec <_nl_load_domain+0x30c>
   125c0:	0004c737          	lui	a4,0x4c
   125c4:	37070713          	addi	a4,a4,880 # 4c370 <_nl_default_default_domain+0x28>
   125c8:	825ff06f          	j	11dec <_nl_load_domain+0x30c>
   125cc:	0004c737          	lui	a4,0x4c
   125d0:	36870713          	addi	a4,a4,872 # 4c368 <_nl_default_default_domain+0x20>
   125d4:	819ff06f          	j	11dec <_nl_load_domain+0x30c>
   125d8:	674a                	ld	a4,144(sp)
   125da:	813ff06f          	j	11dec <_nl_load_domain+0x30c>
   125de:	672a                	ld	a4,136(sp)
   125e0:	80dff06f          	j	11dec <_nl_load_domain+0x30c>
   125e4:	0004c737          	lui	a4,0x4c
   125e8:	36870713          	addi	a4,a4,872 # 4c368 <_nl_default_default_domain+0x20>
   125ec:	801ff06f          	j	11dec <_nl_load_domain+0x30c>
   125f0:	674a                	ld	a4,144(sp)
   125f2:	ffaff06f          	j	11dec <_nl_load_domain+0x30c>
   125f6:	674a                	ld	a4,144(sp)
   125f8:	ff4ff06f          	j	11dec <_nl_load_domain+0x30c>
   125fc:	672a                	ld	a4,136(sp)
   125fe:	feeff06f          	j	11dec <_nl_load_domain+0x30c>
   12602:	0004c737          	lui	a4,0x4c
   12606:	37070713          	addi	a4,a4,880 # 4c370 <_nl_default_default_domain+0x28>
   1260a:	fe2ff06f          	j	11dec <_nl_load_domain+0x30c>
   1260e:	355010ef          	jal	ra,14162 <abort>
   12612:	0004c737          	lui	a4,0x4c
   12616:	37070713          	addi	a4,a4,880 # 4c370 <_nl_default_default_domain+0x28>
   1261a:	fd2ff06f          	j	11dec <_nl_load_domain+0x30c>
   1261e:	0004c737          	lui	a4,0x4c
   12622:	36870713          	addi	a4,a4,872 # 4c368 <_nl_default_default_domain+0x20>
   12626:	fc6ff06f          	j	11dec <_nl_load_domain+0x30c>
   1262a:	77e2                	ld	a5,56(sp)
   1262c:	4388                	lw	a0,0(a5)
   1262e:	b9cd                	j	12320 <_nl_load_domain+0x840>
   12630:	672a                	ld	a4,136(sp)
   12632:	fbaff06f          	j	11dec <_nl_load_domain+0x30c>
   12636:	670a                	ld	a4,128(sp)
   12638:	fb4ff06f          	j	11dec <_nl_load_domain+0x30c>
   1263c:	03600293          	li	t0,54
   12640:	085f9e63          	bne	t6,t0,126dc <_nl_load_domain+0xbfc>
   12644:	005bc283          	lbu	t0,5(s7)
   12648:	03400f93          	li	t6,52
   1264c:	4701                	li	a4,0
   1264e:	f9f29f63          	bne	t0,t6,11dec <_nl_load_domain+0x30c>
   12652:	006bc683          	lbu	a3,6(s7)
   12656:	f8069b63          	bnez	a3,11dec <_nl_load_domain+0x30c>
   1265a:	06400713          	li	a4,100
   1265e:	06e50c63          	beq	a0,a4,126d6 <_nl_load_domain+0xbf6>
   12662:	06900713          	li	a4,105
   12666:	06e50563          	beq	a0,a4,126d0 <_nl_load_domain+0xbf0>
   1266a:	06f00713          	li	a4,111
   1266e:	04e50e63          	beq	a0,a4,126ca <_nl_load_domain+0xbea>
   12672:	07500713          	li	a4,117
   12676:	04e50763          	beq	a0,a4,126c4 <_nl_load_domain+0xbe4>
   1267a:	07800713          	li	a4,120
   1267e:	04e50063          	beq	a0,a4,126be <_nl_load_domain+0xbde>
   12682:	05800713          	li	a4,88
   12686:	f8e514e3          	bne	a0,a4,1260e <_nl_load_domain+0xb2e>
   1268a:	7766                	ld	a4,120(sp)
   1268c:	f60ff06f          	j	11dec <_nl_load_domain+0x30c>
   12690:	77e2                	ld	a5,56(sp)
   12692:	0007e783          	lwu	a5,0(a5)
   12696:	b361                	j	1241e <_nl_load_domain+0x93e>
   12698:	77e2                	ld	a5,56(sp)
   1269a:	6b0a                	ld	s6,128(sp)
   1269c:	4388                	lw	a0,0(a5)
   1269e:	b9c1                	j	1236e <_nl_load_domain+0x88e>
   126a0:	77a2                	ld	a5,40(sp)
   126a2:	018cab83          	lw	s7,24(s9)
   126a6:	e8be                	sd	a5,80(sp)
   126a8:	b95d                	j	1235e <_nl_load_domain+0x87e>
   126aa:	77e2                	ld	a5,56(sp)
   126ac:	6b0a                	ld	s6,128(sp)
   126ae:	0007e703          	lwu	a4,0(a5)
   126b2:	974a                	add	a4,a4,s2
   126b4:	00076783          	lwu	a5,0(a4)
   126b8:	97ca                	add	a5,a5,s2
   126ba:	ec3e                	sd	a5,24(sp)
   126bc:	bb65                	j	12474 <_nl_load_domain+0x994>
   126be:	7746                	ld	a4,112(sp)
   126c0:	f2cff06f          	j	11dec <_nl_load_domain+0x30c>
   126c4:	7726                	ld	a4,104(sp)
   126c6:	f26ff06f          	j	11dec <_nl_load_domain+0x30c>
   126ca:	7706                	ld	a4,96(sp)
   126cc:	f20ff06f          	j	11dec <_nl_load_domain+0x30c>
   126d0:	6766                	ld	a4,88(sp)
   126d2:	f1aff06f          	j	11dec <_nl_load_domain+0x30c>
   126d6:	6746                	ld	a4,80(sp)
   126d8:	f14ff06f          	j	11dec <_nl_load_domain+0x30c>
   126dc:	04c00713          	li	a4,76
   126e0:	0aef9163          	bne	t6,a4,12782 <_nl_load_domain+0xca2>
   126e4:	005bc383          	lbu	t2,5(s7)
   126e8:	04500f93          	li	t6,69
   126ec:	4701                	li	a4,0
   126ee:	eff39f63          	bne	t2,t6,11dec <_nl_load_domain+0x30c>
   126f2:	006bc383          	lbu	t2,6(s7)
   126f6:	04100f93          	li	t6,65
   126fa:	eff39963          	bne	t2,t6,11dec <_nl_load_domain+0x30c>
   126fe:	007bc383          	lbu	t2,7(s7)
   12702:	05300f93          	li	t6,83
   12706:	eff39363          	bne	t2,t6,11dec <_nl_load_domain+0x30c>
   1270a:	008bc383          	lbu	t2,8(s7)
   1270e:	05400f93          	li	t6,84
   12712:	edf39d63          	bne	t2,t6,11dec <_nl_load_domain+0x30c>
   12716:	009bcf83          	lbu	t6,9(s7)
   1271a:	03800393          	li	t2,56
   1271e:	1a7f8263          	beq	t6,t2,128c2 <_nl_load_domain+0xde2>
   12722:	03100393          	li	t2,49
   12726:	147f8963          	beq	t6,t2,12878 <_nl_load_domain+0xd98>
   1272a:	03300393          	li	t2,51
   1272e:	0e7f8d63          	beq	t6,t2,12828 <_nl_load_domain+0xd48>
   12732:	ea5f9d63          	bne	t6,t0,11dec <_nl_load_domain+0x30c>
   12736:	00abc283          	lbu	t0,10(s7)
   1273a:	03400f93          	li	t6,52
   1273e:	4701                	li	a4,0
   12740:	ebf29663          	bne	t0,t6,11dec <_nl_load_domain+0x30c>
   12744:	00bbc683          	lbu	a3,11(s7)
   12748:	ea069263          	bnez	a3,11dec <_nl_load_domain+0x30c>
   1274c:	06400713          	li	a4,100
   12750:	0ce50963          	beq	a0,a4,12822 <_nl_load_domain+0xd42>
   12754:	06900713          	li	a4,105
   12758:	22e50f63          	beq	a0,a4,12996 <_nl_load_domain+0xeb6>
   1275c:	06f00713          	li	a4,111
   12760:	22e50863          	beq	a0,a4,12990 <_nl_load_domain+0xeb0>
   12764:	07500713          	li	a4,117
   12768:	22e50a63          	beq	a0,a4,1299c <_nl_load_domain+0xebc>
   1276c:	07800713          	li	a4,120
   12770:	0ae50663          	beq	a0,a4,1281c <_nl_load_domain+0xd3c>
   12774:	05800713          	li	a4,88
   12778:	e8e51be3          	bne	a0,a4,1260e <_nl_load_domain+0xb2e>
   1277c:	7766                	ld	a4,120(sp)
   1277e:	e6eff06f          	j	11dec <_nl_load_domain+0x30c>
   12782:	04600713          	li	a4,70
   12786:	32ef9263          	bne	t6,a4,12aaa <_nl_load_domain+0xfca>
   1278a:	005bc383          	lbu	t2,5(s7)
   1278e:	04100f93          	li	t6,65
   12792:	4701                	li	a4,0
   12794:	e5f39c63          	bne	t2,t6,11dec <_nl_load_domain+0x30c>
   12798:	006bc383          	lbu	t2,6(s7)
   1279c:	05300f93          	li	t6,83
   127a0:	e5f39663          	bne	t2,t6,11dec <_nl_load_domain+0x30c>
   127a4:	007bc383          	lbu	t2,7(s7)
   127a8:	05400f93          	li	t6,84
   127ac:	e5f39063          	bne	t2,t6,11dec <_nl_load_domain+0x30c>
   127b0:	008bcf83          	lbu	t6,8(s7)
   127b4:	03800393          	li	t2,56
   127b8:	2a7f8763          	beq	t6,t2,12a66 <_nl_load_domain+0xf86>
   127bc:	03100393          	li	t2,49
   127c0:	247f8463          	beq	t6,t2,12a08 <_nl_load_domain+0xf28>
   127c4:	03300393          	li	t2,51
   127c8:	1e7f8c63          	beq	t6,t2,129c0 <_nl_load_domain+0xee0>
   127cc:	e25f9063          	bne	t6,t0,11dec <_nl_load_domain+0x30c>
   127d0:	009bc283          	lbu	t0,9(s7)
   127d4:	03400f93          	li	t6,52
   127d8:	4701                	li	a4,0
   127da:	e1f29963          	bne	t0,t6,11dec <_nl_load_domain+0x30c>
   127de:	00abc683          	lbu	a3,10(s7)
   127e2:	e0069563          	bnez	a3,11dec <_nl_load_domain+0x30c>
   127e6:	06400713          	li	a4,100
   127ea:	1ce50863          	beq	a0,a4,129ba <_nl_load_domain+0xeda>
   127ee:	06900713          	li	a4,105
   127f2:	1ce50163          	beq	a0,a4,129b4 <_nl_load_domain+0xed4>
   127f6:	06f00713          	li	a4,111
   127fa:	1ae50a63          	beq	a0,a4,129ae <_nl_load_domain+0xece>
   127fe:	07500713          	li	a4,117
   12802:	1ae50363          	beq	a0,a4,129a8 <_nl_load_domain+0xec8>
   12806:	07800713          	li	a4,120
   1280a:	18e50c63          	beq	a0,a4,129a2 <_nl_load_domain+0xec2>
   1280e:	05800713          	li	a4,88
   12812:	dee51ee3          	bne	a0,a4,1260e <_nl_load_domain+0xb2e>
   12816:	7766                	ld	a4,120(sp)
   12818:	dd4ff06f          	j	11dec <_nl_load_domain+0x30c>
   1281c:	7746                	ld	a4,112(sp)
   1281e:	dceff06f          	j	11dec <_nl_load_domain+0x30c>
   12822:	6746                	ld	a4,80(sp)
   12824:	dc8ff06f          	j	11dec <_nl_load_domain+0x30c>
   12828:	00abc283          	lbu	t0,10(s7)
   1282c:	03200f93          	li	t6,50
   12830:	dbf29e63          	bne	t0,t6,11dec <_nl_load_domain+0x30c>
   12834:	00bbc703          	lbu	a4,11(s7)
   12838:	14071963          	bnez	a4,1298a <_nl_load_domain+0xeaa>
   1283c:	06400713          	li	a4,100
   12840:	14e50263          	beq	a0,a4,12984 <_nl_load_domain+0xea4>
   12844:	06900713          	li	a4,105
   12848:	12e50b63          	beq	a0,a4,1297e <_nl_load_domain+0xe9e>
   1284c:	06f00713          	li	a4,111
   12850:	12e50463          	beq	a0,a4,12978 <_nl_load_domain+0xe98>
   12854:	07500713          	li	a4,117
   12858:	0ce50963          	beq	a0,a4,1292a <_nl_load_domain+0xe4a>
   1285c:	07800713          	li	a4,120
   12860:	0ae50f63          	beq	a0,a4,1291e <_nl_load_domain+0xe3e>
   12864:	05800713          	li	a4,88
   12868:	dae513e3          	bne	a0,a4,1260e <_nl_load_domain+0xb2e>
   1286c:	0005d737          	lui	a4,0x5d
   12870:	83070713          	addi	a4,a4,-2000 # 5c830 <step3b_jumps.11844+0x1b0>
   12874:	d78ff06f          	j	11dec <_nl_load_domain+0x30c>
   12878:	00abcf83          	lbu	t6,10(s7)
   1287c:	d65f9863          	bne	t6,t0,11dec <_nl_load_domain+0x30c>
   12880:	00bbc703          	lbu	a4,11(s7)
   12884:	eb51                	bnez	a4,12918 <_nl_load_domain+0xe38>
   12886:	06400713          	li	a4,100
   1288a:	08e50463          	beq	a0,a4,12912 <_nl_load_domain+0xe32>
   1288e:	06900713          	li	a4,105
   12892:	0ae50563          	beq	a0,a4,1293c <_nl_load_domain+0xe5c>
   12896:	06f00713          	li	a4,111
   1289a:	08e50e63          	beq	a0,a4,12936 <_nl_load_domain+0xe56>
   1289e:	07500713          	li	a4,117
   128a2:	0ae50063          	beq	a0,a4,12942 <_nl_load_domain+0xe62>
   128a6:	07800713          	li	a4,120
   128aa:	04e50e63          	beq	a0,a4,12906 <_nl_load_domain+0xe26>
   128ae:	05800713          	li	a4,88
   128b2:	d4e51ee3          	bne	a0,a4,1260e <_nl_load_domain+0xb2e>
   128b6:	0005d737          	lui	a4,0x5d
   128ba:	83070713          	addi	a4,a4,-2000 # 5c830 <step3b_jumps.11844+0x1b0>
   128be:	d2eff06f          	j	11dec <_nl_load_domain+0x30c>
   128c2:	00abc683          	lbu	a3,10(s7)
   128c6:	d2069363          	bnez	a3,11dec <_nl_load_domain+0x30c>
   128ca:	06400713          	li	a4,100
   128ce:	0ae50263          	beq	a0,a4,12972 <_nl_load_domain+0xe92>
   128d2:	06900713          	li	a4,105
   128d6:	08e50b63          	beq	a0,a4,1296c <_nl_load_domain+0xe8c>
   128da:	06f00713          	li	a4,111
   128de:	08e50463          	beq	a0,a4,12966 <_nl_load_domain+0xe86>
   128e2:	07500713          	li	a4,117
   128e6:	06e50a63          	beq	a0,a4,1295a <_nl_load_domain+0xe7a>
   128ea:	07800713          	li	a4,120
   128ee:	06e50063          	beq	a0,a4,1294e <_nl_load_domain+0xe6e>
   128f2:	05800713          	li	a4,88
   128f6:	d0e51ce3          	bne	a0,a4,1260e <_nl_load_domain+0xb2e>
   128fa:	0005d737          	lui	a4,0x5d
   128fe:	83070713          	addi	a4,a4,-2000 # 5c830 <step3b_jumps.11844+0x1b0>
   12902:	ceaff06f          	j	11dec <_nl_load_domain+0x30c>
   12906:	0004c737          	lui	a4,0x4c
   1290a:	37070713          	addi	a4,a4,880 # 4c370 <_nl_default_default_domain+0x28>
   1290e:	cdeff06f          	j	11dec <_nl_load_domain+0x30c>
   12912:	670a                	ld	a4,128(sp)
   12914:	cd8ff06f          	j	11dec <_nl_load_domain+0x30c>
   12918:	4701                	li	a4,0
   1291a:	cd2ff06f          	j	11dec <_nl_load_domain+0x30c>
   1291e:	0004c737          	lui	a4,0x4c
   12922:	37070713          	addi	a4,a4,880 # 4c370 <_nl_default_default_domain+0x28>
   12926:	cc6ff06f          	j	11dec <_nl_load_domain+0x30c>
   1292a:	0004c737          	lui	a4,0x4c
   1292e:	36870713          	addi	a4,a4,872 # 4c368 <_nl_default_default_domain+0x20>
   12932:	cbaff06f          	j	11dec <_nl_load_domain+0x30c>
   12936:	674a                	ld	a4,144(sp)
   12938:	cb4ff06f          	j	11dec <_nl_load_domain+0x30c>
   1293c:	672a                	ld	a4,136(sp)
   1293e:	caeff06f          	j	11dec <_nl_load_domain+0x30c>
   12942:	0004c737          	lui	a4,0x4c
   12946:	36870713          	addi	a4,a4,872 # 4c368 <_nl_default_default_domain+0x20>
   1294a:	ca2ff06f          	j	11dec <_nl_load_domain+0x30c>
   1294e:	0004c737          	lui	a4,0x4c
   12952:	37070713          	addi	a4,a4,880 # 4c370 <_nl_default_default_domain+0x28>
   12956:	c96ff06f          	j	11dec <_nl_load_domain+0x30c>
   1295a:	0004c737          	lui	a4,0x4c
   1295e:	36870713          	addi	a4,a4,872 # 4c368 <_nl_default_default_domain+0x20>
   12962:	c8aff06f          	j	11dec <_nl_load_domain+0x30c>
   12966:	674a                	ld	a4,144(sp)
   12968:	c84ff06f          	j	11dec <_nl_load_domain+0x30c>
   1296c:	672a                	ld	a4,136(sp)
   1296e:	c7eff06f          	j	11dec <_nl_load_domain+0x30c>
   12972:	670a                	ld	a4,128(sp)
   12974:	c78ff06f          	j	11dec <_nl_load_domain+0x30c>
   12978:	674a                	ld	a4,144(sp)
   1297a:	c72ff06f          	j	11dec <_nl_load_domain+0x30c>
   1297e:	672a                	ld	a4,136(sp)
   12980:	c6cff06f          	j	11dec <_nl_load_domain+0x30c>
   12984:	670a                	ld	a4,128(sp)
   12986:	c66ff06f          	j	11dec <_nl_load_domain+0x30c>
   1298a:	4701                	li	a4,0
   1298c:	c60ff06f          	j	11dec <_nl_load_domain+0x30c>
   12990:	7706                	ld	a4,96(sp)
   12992:	c5aff06f          	j	11dec <_nl_load_domain+0x30c>
   12996:	6766                	ld	a4,88(sp)
   12998:	c54ff06f          	j	11dec <_nl_load_domain+0x30c>
   1299c:	7726                	ld	a4,104(sp)
   1299e:	c4eff06f          	j	11dec <_nl_load_domain+0x30c>
   129a2:	7746                	ld	a4,112(sp)
   129a4:	c48ff06f          	j	11dec <_nl_load_domain+0x30c>
   129a8:	7726                	ld	a4,104(sp)
   129aa:	c42ff06f          	j	11dec <_nl_load_domain+0x30c>
   129ae:	7706                	ld	a4,96(sp)
   129b0:	c3cff06f          	j	11dec <_nl_load_domain+0x30c>
   129b4:	6766                	ld	a4,88(sp)
   129b6:	c36ff06f          	j	11dec <_nl_load_domain+0x30c>
   129ba:	6746                	ld	a4,80(sp)
   129bc:	c30ff06f          	j	11dec <_nl_load_domain+0x30c>
   129c0:	009bc283          	lbu	t0,9(s7)
   129c4:	03200f93          	li	t6,50
   129c8:	c3f29263          	bne	t0,t6,11dec <_nl_load_domain+0x30c>
   129cc:	00abc703          	lbu	a4,10(s7)
   129d0:	eb41                	bnez	a4,12a60 <_nl_load_domain+0xf80>
   129d2:	06400713          	li	a4,100
   129d6:	08e50263          	beq	a0,a4,12a5a <_nl_load_domain+0xf7a>
   129da:	06900713          	li	a4,105
   129de:	1ee50f63          	beq	a0,a4,12bdc <_nl_load_domain+0x10fc>
   129e2:	06f00713          	li	a4,111
   129e6:	1ee50863          	beq	a0,a4,12bd6 <_nl_load_domain+0x10f6>
   129ea:	07500713          	li	a4,117
   129ee:	06e50363          	beq	a0,a4,12a54 <_nl_load_domain+0xf74>
   129f2:	07800713          	li	a4,120
   129f6:	04e50c63          	beq	a0,a4,12a4e <_nl_load_domain+0xf6e>
   129fa:	05800713          	li	a4,88
   129fe:	c0e518e3          	bne	a0,a4,1260e <_nl_load_domain+0xb2e>
   12a02:	7766                	ld	a4,120(sp)
   12a04:	be8ff06f          	j	11dec <_nl_load_domain+0x30c>
   12a08:	009bcf83          	lbu	t6,9(s7)
   12a0c:	be5f9063          	bne	t6,t0,11dec <_nl_load_domain+0x30c>
   12a10:	00abc703          	lbu	a4,10(s7)
   12a14:	1e071663          	bnez	a4,12c00 <_nl_load_domain+0x1120>
   12a18:	06400713          	li	a4,100
   12a1c:	1ce50f63          	beq	a0,a4,12bfa <_nl_load_domain+0x111a>
   12a20:	06900713          	li	a4,105
   12a24:	1ce50863          	beq	a0,a4,12bf4 <_nl_load_domain+0x1114>
   12a28:	06f00713          	li	a4,111
   12a2c:	1ce50163          	beq	a0,a4,12bee <_nl_load_domain+0x110e>
   12a30:	07500713          	li	a4,117
   12a34:	1ae50a63          	beq	a0,a4,12be8 <_nl_load_domain+0x1108>
   12a38:	07800713          	li	a4,120
   12a3c:	1ae50363          	beq	a0,a4,12be2 <_nl_load_domain+0x1102>
   12a40:	05800713          	li	a4,88
   12a44:	bce515e3          	bne	a0,a4,1260e <_nl_load_domain+0xb2e>
   12a48:	7766                	ld	a4,120(sp)
   12a4a:	ba2ff06f          	j	11dec <_nl_load_domain+0x30c>
   12a4e:	7746                	ld	a4,112(sp)
   12a50:	b9cff06f          	j	11dec <_nl_load_domain+0x30c>
   12a54:	7726                	ld	a4,104(sp)
   12a56:	b96ff06f          	j	11dec <_nl_load_domain+0x30c>
   12a5a:	6746                	ld	a4,80(sp)
   12a5c:	b90ff06f          	j	11dec <_nl_load_domain+0x30c>
   12a60:	4701                	li	a4,0
   12a62:	b8aff06f          	j	11dec <_nl_load_domain+0x30c>
   12a66:	009bc683          	lbu	a3,9(s7)
   12a6a:	b8069163          	bnez	a3,11dec <_nl_load_domain+0x30c>
   12a6e:	06400713          	li	a4,100
   12a72:	12e50d63          	beq	a0,a4,12bac <_nl_load_domain+0x10cc>
   12a76:	06900713          	li	a4,105
   12a7a:	12e50663          	beq	a0,a4,12ba6 <_nl_load_domain+0x10c6>
   12a7e:	06f00713          	li	a4,111
   12a82:	10e50f63          	beq	a0,a4,12ba0 <_nl_load_domain+0x10c0>
   12a86:	07500713          	li	a4,117
   12a8a:	10e50563          	beq	a0,a4,12b94 <_nl_load_domain+0x10b4>
   12a8e:	07800713          	li	a4,120
   12a92:	06e50c63          	beq	a0,a4,12b0a <_nl_load_domain+0x102a>
   12a96:	05800713          	li	a4,88
   12a9a:	b6e51ae3          	bne	a0,a4,1260e <_nl_load_domain+0xb2e>
   12a9e:	0005d737          	lui	a4,0x5d
   12aa2:	83070713          	addi	a4,a4,-2000 # 5c830 <step3b_jumps.11844+0x1b0>
   12aa6:	b46ff06f          	j	11dec <_nl_load_domain+0x30c>
   12aaa:	04d00713          	li	a4,77
   12aae:	08ef9363          	bne	t6,a4,12b34 <_nl_load_domain+0x1054>
   12ab2:	005bc283          	lbu	t0,5(s7)
   12ab6:	04100f93          	li	t6,65
   12aba:	4701                	li	a4,0
   12abc:	b3f29863          	bne	t0,t6,11dec <_nl_load_domain+0x30c>
   12ac0:	006bc283          	lbu	t0,6(s7)
   12ac4:	05800f93          	li	t6,88
   12ac8:	b3f29263          	bne	t0,t6,11dec <_nl_load_domain+0x30c>
   12acc:	007bc683          	lbu	a3,7(s7)
   12ad0:	b0069e63          	bnez	a3,11dec <_nl_load_domain+0x30c>
   12ad4:	06400713          	li	a4,100
   12ad8:	04e50b63          	beq	a0,a4,12b2e <_nl_load_domain+0x104e>
   12adc:	06900713          	li	a4,105
   12ae0:	04e50463          	beq	a0,a4,12b28 <_nl_load_domain+0x1048>
   12ae4:	06f00713          	li	a4,111
   12ae8:	02e50d63          	beq	a0,a4,12b22 <_nl_load_domain+0x1042>
   12aec:	07500713          	li	a4,117
   12af0:	02e50663          	beq	a0,a4,12b1c <_nl_load_domain+0x103c>
   12af4:	07800713          	li	a4,120
   12af8:	00e50f63          	beq	a0,a4,12b16 <_nl_load_domain+0x1036>
   12afc:	05800713          	li	a4,88
   12b00:	b0e517e3          	bne	a0,a4,1260e <_nl_load_domain+0xb2e>
   12b04:	7766                	ld	a4,120(sp)
   12b06:	ae6ff06f          	j	11dec <_nl_load_domain+0x30c>
   12b0a:	0004c737          	lui	a4,0x4c
   12b0e:	37070713          	addi	a4,a4,880 # 4c370 <_nl_default_default_domain+0x28>
   12b12:	adaff06f          	j	11dec <_nl_load_domain+0x30c>
   12b16:	7746                	ld	a4,112(sp)
   12b18:	ad4ff06f          	j	11dec <_nl_load_domain+0x30c>
   12b1c:	7726                	ld	a4,104(sp)
   12b1e:	aceff06f          	j	11dec <_nl_load_domain+0x30c>
   12b22:	7706                	ld	a4,96(sp)
   12b24:	ac8ff06f          	j	11dec <_nl_load_domain+0x30c>
   12b28:	6766                	ld	a4,88(sp)
   12b2a:	ac2ff06f          	j	11dec <_nl_load_domain+0x30c>
   12b2e:	6746                	ld	a4,80(sp)
   12b30:	abcff06f          	j	11dec <_nl_load_domain+0x30c>
   12b34:	05000713          	li	a4,80
   12b38:	08ef9c63          	bne	t6,a4,12bd0 <_nl_load_domain+0x10f0>
   12b3c:	005bc283          	lbu	t0,5(s7)
   12b40:	05400f93          	li	t6,84
   12b44:	4701                	li	a4,0
   12b46:	abf29363          	bne	t0,t6,11dec <_nl_load_domain+0x30c>
   12b4a:	006bc283          	lbu	t0,6(s7)
   12b4e:	05200f93          	li	t6,82
   12b52:	a9f29d63          	bne	t0,t6,11dec <_nl_load_domain+0x30c>
   12b56:	007bc683          	lbu	a3,7(s7)
   12b5a:	a8069963          	bnez	a3,11dec <_nl_load_domain+0x30c>
   12b5e:	06400713          	li	a4,100
   12b62:	06e50463          	beq	a0,a4,12bca <_nl_load_domain+0x10ea>
   12b66:	06900713          	li	a4,105
   12b6a:	04e50d63          	beq	a0,a4,12bc4 <_nl_load_domain+0x10e4>
   12b6e:	06f00713          	li	a4,111
   12b72:	04e50663          	beq	a0,a4,12bbe <_nl_load_domain+0x10de>
   12b76:	07500713          	li	a4,117
   12b7a:	02e50f63          	beq	a0,a4,12bb8 <_nl_load_domain+0x10d8>
   12b7e:	07800713          	li	a4,120
   12b82:	02e50863          	beq	a0,a4,12bb2 <_nl_load_domain+0x10d2>
   12b86:	05800713          	li	a4,88
   12b8a:	a8e512e3          	bne	a0,a4,1260e <_nl_load_domain+0xb2e>
   12b8e:	7766                	ld	a4,120(sp)
   12b90:	a5cff06f          	j	11dec <_nl_load_domain+0x30c>
   12b94:	0004c737          	lui	a4,0x4c
   12b98:	36870713          	addi	a4,a4,872 # 4c368 <_nl_default_default_domain+0x20>
   12b9c:	a50ff06f          	j	11dec <_nl_load_domain+0x30c>
   12ba0:	674a                	ld	a4,144(sp)
   12ba2:	a4aff06f          	j	11dec <_nl_load_domain+0x30c>
   12ba6:	672a                	ld	a4,136(sp)
   12ba8:	a44ff06f          	j	11dec <_nl_load_domain+0x30c>
   12bac:	670a                	ld	a4,128(sp)
   12bae:	a3eff06f          	j	11dec <_nl_load_domain+0x30c>
   12bb2:	7746                	ld	a4,112(sp)
   12bb4:	a38ff06f          	j	11dec <_nl_load_domain+0x30c>
   12bb8:	7726                	ld	a4,104(sp)
   12bba:	a32ff06f          	j	11dec <_nl_load_domain+0x30c>
   12bbe:	7706                	ld	a4,96(sp)
   12bc0:	a2cff06f          	j	11dec <_nl_load_domain+0x30c>
   12bc4:	6766                	ld	a4,88(sp)
   12bc6:	a26ff06f          	j	11dec <_nl_load_domain+0x30c>
   12bca:	6746                	ld	a4,80(sp)
   12bcc:	a20ff06f          	j	11dec <_nl_load_domain+0x30c>
   12bd0:	4701                	li	a4,0
   12bd2:	a1aff06f          	j	11dec <_nl_load_domain+0x30c>
   12bd6:	7706                	ld	a4,96(sp)
   12bd8:	a14ff06f          	j	11dec <_nl_load_domain+0x30c>
   12bdc:	6766                	ld	a4,88(sp)
   12bde:	a0eff06f          	j	11dec <_nl_load_domain+0x30c>
   12be2:	7746                	ld	a4,112(sp)
   12be4:	a08ff06f          	j	11dec <_nl_load_domain+0x30c>
   12be8:	7726                	ld	a4,104(sp)
   12bea:	a02ff06f          	j	11dec <_nl_load_domain+0x30c>
   12bee:	7706                	ld	a4,96(sp)
   12bf0:	9fcff06f          	j	11dec <_nl_load_domain+0x30c>
   12bf4:	6766                	ld	a4,88(sp)
   12bf6:	9f6ff06f          	j	11dec <_nl_load_domain+0x30c>
   12bfa:	6746                	ld	a4,80(sp)
   12bfc:	9f0ff06f          	j	11dec <_nl_load_domain+0x30c>
   12c00:	4701                	li	a4,0
   12c02:	9eaff06f          	j	11dec <_nl_load_domain+0x30c>

0000000000012c06 <alias_compare>:
   12c06:	618c                	ld	a1,0(a1)
   12c08:	6108                	ld	a0,0(a0)
   12c0a:	0005c637          	lui	a2,0x5c
   12c0e:	e5860613          	addi	a2,a2,-424 # 5be58 <_nl_C_locobj>
   12c12:	0780d06f          	j	1fc8a <__strcasecmp_l>

0000000000012c16 <read_alias_file>:
   12c16:	db010113          	addi	sp,sp,-592
   12c1a:	24113423          	sd	ra,584(sp)
   12c1e:	24813023          	sd	s0,576(sp)
   12c22:	22913c23          	sd	s1,568(sp)
   12c26:	0c80                	addi	s0,sp,592
   12c28:	21513c23          	sd	s5,536(sp)
   12c2c:	21613823          	sd	s6,528(sp)
   12c30:	23213823          	sd	s2,560(sp)
   12c34:	23313423          	sd	s3,552(sp)
   12c38:	23413023          	sd	s4,544(sp)
   12c3c:	21713423          	sd	s7,520(sp)
   12c40:	21813023          	sd	s8,512(sp)
   12c44:	ffe6                	sd	s9,504(sp)
   12c46:	fbea                	sd	s10,496(sp)
   12c48:	f7ee                	sd	s11,488(sp)
   12c4a:	02c58793          	addi	a5,a1,44
   12c4e:	9bc1                	andi	a5,a5,-16
   12c50:	0006bb37          	lui	s6,0x6b
   12c54:	40f10133          	sub	sp,sp,a5
   12c58:	ba0b3783          	ld	a5,-1120(s6) # 6aba0 <__fini_array_end>
   12c5c:	848a                	mv	s1,sp
   12c5e:	862e                	mv	a2,a1
   12c60:	85aa                	mv	a1,a0
   12c62:	8526                	mv	a0,s1
   12c64:	f8f43423          	sd	a5,-120(s0) # ffffffffffffff88 <_end+0xfffffffffff91f00>
   12c68:	7dd0c0ef          	jal	ra,1fc44 <__mempcpy>
   12c6c:	0004c5b7          	lui	a1,0x4c
   12c70:	4639                	li	a2,14
   12c72:	3b858593          	addi	a1,a1,952 # 4c3b8 <_nl_default_default_domain+0x70>
   12c76:	0440d0ef          	jal	ra,1fcba <memcpy>
   12c7a:	0004c5b7          	lui	a1,0x4c
   12c7e:	3b058593          	addi	a1,a1,944 # 4c3b0 <_nl_default_default_domain+0x68>
   12c82:	8526                	mv	a0,s1
   12c84:	345020ef          	jal	ra,157c8 <_IO_new_fopen>
   12c88:	4a81                	li	s5,0
   12c8a:	c561                	beqz	a0,12d52 <read_alias_file+0x13c>
   12c8c:	4118                	lw	a4,0(a0)
   12c8e:	77e1                	lui	a5,0xffff8
   12c90:	17fd                	addi	a5,a5,-1
   12c92:	8ff9                	and	a5,a5,a4
   12c94:	66a1                	lui	a3,0x8
   12c96:	8fd5                	or	a5,a5,a3
   12c98:	c11c                	sw	a5,0(a0)
   12c9a:	8b41                	andi	a4,a4,16
   12c9c:	892a                	mv	s2,a0
   12c9e:	30071063          	bnez	a4,12f9e <read_alias_file+0x388>
   12ca2:	6d09                	lui	s10,0x2
   12ca4:	864a                	mv	a2,s2
   12ca6:	19000593          	li	a1,400
   12caa:	df840513          	addi	a0,s0,-520
   12cae:	68d030ef          	jal	ra,16b3a <__fgets_unlocked>
   12cb2:	c959                	beqz	a0,12d48 <read_alias_file+0x132>
   12cb4:	45a9                	li	a1,10
   12cb6:	df840513          	addi	a0,s0,-520
   12cba:	6d90b0ef          	jal	ra,1eb92 <strchr>
   12cbe:	df844603          	lbu	a2,-520(s0)
   12cc2:	05023583          	ld	a1,80(tp) # 50 <__libc_tsd_CTYPE_B>
   12cc6:	8daa                	mv	s11,a0
   12cc8:	00161713          	slli	a4,a2,0x1
   12ccc:	972e                	add	a4,a4,a1
   12cce:	00075703          	lhu	a4,0(a4)
   12cd2:	df840493          	addi	s1,s0,-520
   12cd6:	01a77733          	and	a4,a4,s10
   12cda:	cf01                	beqz	a4,12cf2 <read_alias_file+0xdc>
   12cdc:	0485                	addi	s1,s1,1
   12cde:	0004c603          	lbu	a2,0(s1)
   12ce2:	00161713          	slli	a4,a2,0x1
   12ce6:	972e                	add	a4,a4,a1
   12ce8:	00075703          	lhu	a4,0(a4)
   12cec:	01a77733          	and	a4,a4,s10
   12cf0:	f775                	bnez	a4,12cdc <read_alias_file+0xc6>
   12cf2:	c629                	beqz	a2,12d3c <read_alias_file+0x126>
   12cf4:	02300713          	li	a4,35
   12cf8:	04e60263          	beq	a2,a4,12d3c <read_alias_file+0x126>
   12cfc:	0014c503          	lbu	a0,1(s1)
   12d00:	00148713          	addi	a4,s1,1
   12d04:	a031                	j	12d10 <read_alias_file+0xfa>
   12d06:	16061f63          	bnez	a2,12e84 <read_alias_file+0x26e>
   12d0a:	0705                	addi	a4,a4,1
   12d0c:	00074503          	lbu	a0,0(a4)
   12d10:	00151613          	slli	a2,a0,0x1
   12d14:	962e                	add	a2,a2,a1
   12d16:	00065603          	lhu	a2,0(a2)
   12d1a:	01a67633          	and	a2,a2,s10
   12d1e:	f565                	bnez	a0,12d06 <read_alias_file+0xf0>
   12d20:	8cba                	mv	s9,a4
   12d22:	ce09                	beqz	a2,12d3c <read_alias_file+0x126>
   12d24:	0c85                	addi	s9,s9,1
   12d26:	000cc503          	lbu	a0,0(s9)
   12d2a:	00151613          	slli	a2,a0,0x1
   12d2e:	962e                	add	a2,a2,a1
   12d30:	00065603          	lhu	a2,0(a2)
   12d34:	01a67633          	and	a2,a2,s10
   12d38:	f675                	bnez	a2,12d24 <read_alias_file+0x10e>
   12d3a:	ed35                	bnez	a0,12db6 <read_alias_file+0x1a0>
   12d3c:	060d8463          	beqz	s11,12da4 <read_alias_file+0x18e>
   12d40:	00092703          	lw	a4,0(s2)
   12d44:	8b41                	andi	a4,a4,16
   12d46:	df39                	beqz	a4,12ca4 <read_alias_file+0x8e>
   12d48:	854a                	mv	a0,s2
   12d4a:	68e020ef          	jal	ra,153d8 <_IO_new_fclose>
   12d4e:	1a0a9763          	bnez	s5,12efc <read_alias_file+0x2e6>
   12d52:	f8843703          	ld	a4,-120(s0)
   12d56:	ba0b3783          	ld	a5,-1120(s6)
   12d5a:	8556                	mv	a0,s5
   12d5c:	24f71663          	bne	a4,a5,12fa8 <read_alias_file+0x392>
   12d60:	db040113          	addi	sp,s0,-592
   12d64:	24813083          	ld	ra,584(sp)
   12d68:	24013403          	ld	s0,576(sp)
   12d6c:	23813483          	ld	s1,568(sp)
   12d70:	23013903          	ld	s2,560(sp)
   12d74:	22813983          	ld	s3,552(sp)
   12d78:	22013a03          	ld	s4,544(sp)
   12d7c:	21813a83          	ld	s5,536(sp)
   12d80:	21013b03          	ld	s6,528(sp)
   12d84:	20813b83          	ld	s7,520(sp)
   12d88:	20013c03          	ld	s8,512(sp)
   12d8c:	7cfe                	ld	s9,504(sp)
   12d8e:	7d5e                	ld	s10,496(sp)
   12d90:	7dbe                	ld	s11,488(sp)
   12d92:	25010113          	addi	sp,sp,592
   12d96:	8082                	ret
   12d98:	45a9                	li	a1,10
   12d9a:	df840513          	addi	a0,s0,-520
   12d9e:	5f50b0ef          	jal	ra,1eb92 <strchr>
   12da2:	fd59                	bnez	a0,12d40 <read_alias_file+0x12a>
   12da4:	864a                	mv	a2,s2
   12da6:	19000593          	li	a1,400
   12daa:	df840513          	addi	a0,s0,-520
   12dae:	58d030ef          	jal	ra,16b3a <__fgets_unlocked>
   12db2:	f17d                	bnez	a0,12d98 <read_alias_file+0x182>
   12db4:	b771                	j	12d40 <read_alias_file+0x12a>
   12db6:	001cc503          	lbu	a0,1(s9)
   12dba:	001c8813          	addi	a6,s9,1
   12dbe:	e511                	bnez	a0,12dca <read_alias_file+0x1b4>
   12dc0:	a025                	j	12de8 <read_alias_file+0x1d2>
   12dc2:	0805                	addi	a6,a6,1
   12dc4:	00084503          	lbu	a0,0(a6)
   12dc8:	c105                	beqz	a0,12de8 <read_alias_file+0x1d2>
   12dca:	00151613          	slli	a2,a0,0x1
   12dce:	962e                	add	a2,a2,a1
   12dd0:	00065603          	lhu	a2,0(a2)
   12dd4:	01a67633          	and	a2,a2,s10
   12dd8:	d66d                	beqz	a2,12dc2 <read_alias_file+0x1ac>
   12dda:	4629                	li	a2,10
   12ddc:	16c51663          	bne	a0,a2,12f48 <read_alias_file+0x332>
   12de0:	00080023          	sb	zero,0(a6)
   12de4:	00a800a3          	sb	a0,1(a6)
   12de8:	a081b603          	ld	a2,-1528(gp) # 6cb10 <maxmap>
   12dec:	a101ba03          	ld	s4,-1520(gp) # 6cb18 <nmap>
   12df0:	0006e7b7          	lui	a5,0x6e
   12df4:	06078b93          	addi	s7,a5,96 # 6e060 <map>
   12df8:	12ca7063          	bleu	a2,s4,12f18 <read_alias_file+0x302>
   12dfc:	8526                	mv	a0,s1
   12dfe:	01a0c0ef          	jal	ra,1ee18 <strlen>
   12e02:	00150613          	addi	a2,a0,1
   12e06:	8566                	mv	a0,s9
   12e08:	dec43423          	sd	a2,-536(s0)
   12e0c:	00c0c0ef          	jal	ra,1ee18 <strlen>
   12e10:	a201bf83          	ld	t6,-1504(gp) # 6cb28 <string_space_act>
   12e14:	de843603          	ld	a2,-536(s0)
   12e18:	a181b583          	ld	a1,-1512(gp) # 6cb20 <string_space_max>
   12e1c:	00150313          	addi	t1,a0,1
   12e20:	00cf8f33          	add	t5,t6,a2
   12e24:	006f0eb3          	add	t4,t5,t1
   12e28:	008bb803          	ld	a6,8(s7)
   12e2c:	07d5e363          	bltu	a1,t4,12e92 <read_alias_file+0x27c>
   12e30:	000bb383          	ld	t2,0(s7)
   12e34:	004a1293          	slli	t0,s4,0x4
   12e38:	85a6                	mv	a1,s1
   12e3a:	01f80533          	add	a0,a6,t6
   12e3e:	005384b3          	add	s1,t2,t0
   12e42:	ddd43c23          	sd	t4,-552(s0)
   12e46:	dc643823          	sd	t1,-560(s0)
   12e4a:	dfe43023          	sd	t5,-544(s0)
   12e4e:	df043423          	sd	a6,-536(s0)
   12e52:	6690c0ef          	jal	ra,1fcba <memcpy>
   12e56:	dd043303          	ld	t1,-560(s0)
   12e5a:	de843803          	ld	a6,-536(s0)
   12e5e:	de043f03          	ld	t5,-544(s0)
   12e62:	e088                	sd	a0,0(s1)
   12e64:	861a                	mv	a2,t1
   12e66:	85e6                	mv	a1,s9
   12e68:	01e80533          	add	a0,a6,t5
   12e6c:	64f0c0ef          	jal	ra,1fcba <memcpy>
   12e70:	dd843e83          	ld	t4,-552(s0)
   12e74:	0a05                	addi	s4,s4,1
   12e76:	e488                	sd	a0,8(s1)
   12e78:	a3d1b023          	sd	t4,-1504(gp) # 6cb28 <string_space_act>
   12e7c:	a141b823          	sd	s4,-1520(gp) # 6cb18 <nmap>
   12e80:	0a85                	addi	s5,s5,1
   12e82:	bd6d                	j	12d3c <read_alias_file+0x126>
   12e84:	00174503          	lbu	a0,1(a4)
   12e88:	00070023          	sb	zero,0(a4)
   12e8c:	00170c93          	addi	s9,a4,1
   12e90:	bd69                	j	12d2a <read_alias_file+0x114>
   12e92:	00660e33          	add	t3,a2,t1
   12e96:	40000513          	li	a0,1024
   12e9a:	0cae6463          	bltu	t3,a0,12f62 <read_alias_file+0x34c>
   12e9e:	9e2e                	add	t3,t3,a1
   12ea0:	85f2                	mv	a1,t3
   12ea2:	8542                	mv	a0,a6
   12ea4:	da643c23          	sd	t1,-584(s0)
   12ea8:	dcc43023          	sd	a2,-576(s0)
   12eac:	ddd43423          	sd	t4,-568(s0)
   12eb0:	dde43823          	sd	t5,-560(s0)
   12eb4:	ddf43c23          	sd	t6,-552(s0)
   12eb8:	dfc43023          	sd	t3,-544(s0)
   12ebc:	df043423          	sd	a6,-536(s0)
   12ec0:	03a0b0ef          	jal	ra,1defa <__libc_realloc>
   12ec4:	e80502e3          	beqz	a0,12d48 <read_alias_file+0x132>
   12ec8:	de843803          	ld	a6,-536(s0)
   12ecc:	000bb383          	ld	t2,0(s7)
   12ed0:	004a1293          	slli	t0,s4,0x4
   12ed4:	de043e03          	ld	t3,-544(s0)
   12ed8:	dd843f83          	ld	t6,-552(s0)
   12edc:	dd043f03          	ld	t5,-560(s0)
   12ee0:	dc843e83          	ld	t4,-568(s0)
   12ee4:	dc043603          	ld	a2,-576(s0)
   12ee8:	db843303          	ld	t1,-584(s0)
   12eec:	09051363          	bne	a0,a6,12f72 <read_alias_file+0x35c>
   12ef0:	00abb423          	sd	a0,8(s7)
   12ef4:	a1c1bc23          	sd	t3,-1512(gp) # 6cb20 <string_space_max>
   12ef8:	882a                	mv	a6,a0
   12efa:	bf3d                	j	12e38 <read_alias_file+0x222>
   12efc:	a101b583          	ld	a1,-1520(gp) # 6cb18 <nmap>
   12f00:	0006e7b7          	lui	a5,0x6e
   12f04:	0607b503          	ld	a0,96(a5) # 6e060 <map>
   12f08:	000136b7          	lui	a3,0x13
   12f0c:	c0668693          	addi	a3,a3,-1018 # 12c06 <alias_compare>
   12f10:	4641                	li	a2,16
   12f12:	02d010ef          	jal	ra,1473e <qsort>
   12f16:	bd35                	j	12d52 <read_alias_file+0x13c>
   12f18:	ea21                	bnez	a2,12f68 <read_alias_file+0x352>
   12f1a:	64000593          	li	a1,1600
   12f1e:	06400813          	li	a6,100
   12f22:	0006e7b7          	lui	a5,0x6e
   12f26:	06078b93          	addi	s7,a5,96 # 6e060 <map>
   12f2a:	000bb503          	ld	a0,0(s7)
   12f2e:	df043423          	sd	a6,-536(s0)
   12f32:	7c90a0ef          	jal	ra,1defa <__libc_realloc>
   12f36:	e00509e3          	beqz	a0,12d48 <read_alias_file+0x132>
   12f3a:	de843803          	ld	a6,-536(s0)
   12f3e:	00abb023          	sd	a0,0(s7)
   12f42:	a101b423          	sd	a6,-1528(gp) # 6cb10 <maxmap>
   12f46:	bd5d                	j	12dfc <read_alias_file+0x1e6>
   12f48:	a081b603          	ld	a2,-1528(gp) # 6cb10 <maxmap>
   12f4c:	a101ba03          	ld	s4,-1520(gp) # 6cb18 <nmap>
   12f50:	0006e7b7          	lui	a5,0x6e
   12f54:	00080023          	sb	zero,0(a6)
   12f58:	06078b93          	addi	s7,a5,96 # 6e060 <map>
   12f5c:	eaca60e3          	bltu	s4,a2,12dfc <read_alias_file+0x1e6>
   12f60:	bf65                	j	12f18 <read_alias_file+0x302>
   12f62:	40000e13          	li	t3,1024
   12f66:	bf25                	j	12e9e <read_alias_file+0x288>
   12f68:	00161813          	slli	a6,a2,0x1
   12f6c:	00561593          	slli	a1,a2,0x5
   12f70:	bf4d                	j	12f22 <read_alias_file+0x30c>
   12f72:	020a0963          	beqz	s4,12fa4 <read_alias_file+0x38e>
   12f76:	41050833          	sub	a6,a0,a6
   12f7a:	859e                	mv	a1,t2
   12f7c:	005387b3          	add	a5,t2,t0
   12f80:	0005b083          	ld	ra,0(a1)
   12f84:	6594                	ld	a3,8(a1)
   12f86:	05c1                	addi	a1,a1,16
   12f88:	01008733          	add	a4,ra,a6
   12f8c:	010680b3          	add	ra,a3,a6
   12f90:	fee5b823          	sd	a4,-16(a1)
   12f94:	fe15bc23          	sd	ra,-8(a1)
   12f98:	feb794e3          	bne	a5,a1,12f80 <read_alias_file+0x36a>
   12f9c:	bf91                	j	12ef0 <read_alias_file+0x2da>
   12f9e:	43a020ef          	jal	ra,153d8 <_IO_new_fclose>
   12fa2:	bb45                	j	12d52 <read_alias_file+0x13c>
   12fa4:	4281                	li	t0,0
   12fa6:	b7a9                	j	12ef0 <read_alias_file+0x2da>
   12fa8:	2220f0ef          	jal	ra,221ca <__stack_chk_fail>

0000000000012fac <_nl_expand_alias>:
   12fac:	7159                	addi	sp,sp,-112
   12fae:	fc56                	sd	s5,56(sp)
   12fb0:	e8ca                	sd	s2,80(sp)
   12fb2:	f486                	sd	ra,104(sp)
   12fb4:	f0a2                	sd	s0,96(sp)
   12fb6:	eca6                	sd	s1,88(sp)
   12fb8:	e4ce                	sd	s3,72(sp)
   12fba:	e0d2                	sd	s4,64(sp)
   12fbc:	f85a                	sd	s6,48(sp)
   12fbe:	f45e                	sd	s7,40(sp)
   12fc0:	f062                	sd	s8,32(sp)
   12fc2:	ec66                	sd	s9,24(sp)
   12fc4:	e86a                	sd	s10,16(sp)
   12fc6:	e46e                	sd	s11,8(sp)
   12fc8:	892a                	mv	s2,a0
   12fca:	4705                	li	a4,1
   12fcc:	a2818693          	addi	a3,gp,-1496 # 6cb30 <lock>
   12fd0:	1006a7af          	lr.w	a5,(a3)
   12fd4:	00079563          	bnez	a5,12fde <_nl_expand_alias+0x32>
   12fd8:	1ce6a62f          	sc.w.aq	a2,a4,(a3)
   12fdc:	fa75                	bnez	a2,12fd0 <_nl_expand_alias+0x24>
   12fde:	2781                	sext.w	a5,a5
   12fe0:	12079963          	bnez	a5,13112 <_nl_expand_alias+0x166>
   12fe4:	a001b783          	ld	a5,-1536(gp) # 6cb08 <locale_alias_path.8461>
   12fe8:	10078e63          	beqz	a5,13104 <_nl_expand_alias+0x158>
   12fec:	a101bd03          	ld	s10,-1520(gp) # 6cb18 <nmap>
   12ff0:	0006eb37          	lui	s6,0x6e
   12ff4:	0005c4b7          	lui	s1,0x5c
   12ff8:	03a00413          	li	s0,58
   12ffc:	080d1f63          	bnez	s10,1309a <_nl_expand_alias+0xee>
   13000:	a001b603          	ld	a2,-1536(gp) # 6cb08 <locale_alias_path.8461>
   13004:	4781                	li	a5,0
   13006:	00064703          	lbu	a4,0(a2)
   1300a:	c321                	beqz	a4,1304a <_nl_expand_alias+0x9e>
   1300c:	00160793          	addi	a5,a2,1
   13010:	8532                	mv	a0,a2
   13012:	00871a63          	bne	a4,s0,13026 <_nl_expand_alias+0x7a>
   13016:	853e                	mv	a0,a5
   13018:	0785                	addi	a5,a5,1
   1301a:	fff7c703          	lbu	a4,-1(a5)
   1301e:	fe870ce3          	beq	a4,s0,13016 <_nl_expand_alias+0x6a>
   13022:	862a                	mv	a2,a0
   13024:	c30d                	beqz	a4,13046 <_nl_expand_alias+0x9a>
   13026:	00150793          	addi	a5,a0,1
   1302a:	a021                	j	13032 <_nl_expand_alias+0x86>
   1302c:	00870963          	beq	a4,s0,1303e <_nl_expand_alias+0x92>
   13030:	87b6                	mv	a5,a3
   13032:	0007c703          	lbu	a4,0(a5)
   13036:	863e                	mv	a2,a5
   13038:	00178693          	addi	a3,a5,1
   1303c:	fb65                	bnez	a4,1302c <_nl_expand_alias+0x80>
   1303e:	04f56363          	bltu	a0,a5,13084 <_nl_expand_alias+0xd8>
   13042:	0007c703          	lbu	a4,0(a5)
   13046:	4785                	li	a5,1
   13048:	f371                	bnez	a4,1300c <_nl_expand_alias+0x60>
   1304a:	ebe9                	bnez	a5,1311c <_nl_expand_alias+0x170>
   1304c:	4781                	li	a5,0
   1304e:	4701                	li	a4,0
   13050:	a2818693          	addi	a3,gp,-1496 # 6cb30 <lock>
   13054:	0f50000f          	fence	iorw,ow
   13058:	08e6a72f          	amoswap.w	a4,a4,(a3)
   1305c:	2701                	sext.w	a4,a4
   1305e:	4685                	li	a3,1
   13060:	08e6c763          	blt	a3,a4,130ee <_nl_expand_alias+0x142>
   13064:	70a6                	ld	ra,104(sp)
   13066:	7406                	ld	s0,96(sp)
   13068:	64e6                	ld	s1,88(sp)
   1306a:	6946                	ld	s2,80(sp)
   1306c:	69a6                	ld	s3,72(sp)
   1306e:	6a06                	ld	s4,64(sp)
   13070:	7ae2                	ld	s5,56(sp)
   13072:	7b42                	ld	s6,48(sp)
   13074:	7ba2                	ld	s7,40(sp)
   13076:	7c02                	ld	s8,32(sp)
   13078:	6ce2                	ld	s9,24(sp)
   1307a:	6d42                	ld	s10,16(sp)
   1307c:	6da2                	ld	s11,8(sp)
   1307e:	853e                	mv	a0,a5
   13080:	6165                	addi	sp,sp,112
   13082:	8082                	ret
   13084:	40a785bb          	subw	a1,a5,a0
   13088:	a0f1b023          	sd	a5,-1536(gp) # 6cb08 <locale_alias_path.8461>
   1308c:	b8bff0ef          	jal	ra,12c16 <read_alias_file>
   13090:	d925                	beqz	a0,13000 <_nl_expand_alias+0x54>
   13092:	a101bd03          	ld	s10,-1520(gp) # 6cb18 <nmap>
   13096:	f60d05e3          	beqz	s10,13000 <_nl_expand_alias+0x54>
   1309a:	060b3c83          	ld	s9,96(s6) # 6e060 <map>
   1309e:	4d81                	li	s11,0
   130a0:	01bd0bb3          	add	s7,s10,s11
   130a4:	001bdb93          	srli	s7,s7,0x1
   130a8:	004b9c13          	slli	s8,s7,0x4
   130ac:	9c66                	add	s8,s8,s9
   130ae:	000c3583          	ld	a1,0(s8)
   130b2:	e5848613          	addi	a2,s1,-424 # 5be58 <_nl_C_locobj>
   130b6:	854a                	mv	a0,s2
   130b8:	3d30c0ef          	jal	ra,1fc8a <__strcasecmp_l>
   130bc:	00054863          	bltz	a0,130cc <_nl_expand_alias+0x120>
   130c0:	c911                	beqz	a0,130d4 <_nl_expand_alias+0x128>
   130c2:	001b8d93          	addi	s11,s7,1
   130c6:	fdadede3          	bltu	s11,s10,130a0 <_nl_expand_alias+0xf4>
   130ca:	bf1d                	j	13000 <_nl_expand_alias+0x54>
   130cc:	8d5e                	mv	s10,s7
   130ce:	fdade9e3          	bltu	s11,s10,130a0 <_nl_expand_alias+0xf4>
   130d2:	b73d                	j	13000 <_nl_expand_alias+0x54>
   130d4:	008c3783          	ld	a5,8(s8)
   130d8:	4701                	li	a4,0
   130da:	a2818693          	addi	a3,gp,-1496 # 6cb30 <lock>
   130de:	0f50000f          	fence	iorw,ow
   130e2:	08e6a72f          	amoswap.w	a4,a4,(a3)
   130e6:	2701                	sext.w	a4,a4
   130e8:	4685                	li	a3,1
   130ea:	f6e6dde3          	ble	a4,a3,13064 <_nl_expand_alias+0xb8>
   130ee:	06200893          	li	a7,98
   130f2:	a2818513          	addi	a0,gp,-1496 # 6cb30 <lock>
   130f6:	08100593          	li	a1,129
   130fa:	4605                	li	a2,1
   130fc:	4681                	li	a3,0
   130fe:	00000073          	ecall
   13102:	b78d                	j	13064 <_nl_expand_alias+0xb8>
   13104:	0004c7b7          	lui	a5,0x4c
   13108:	33078793          	addi	a5,a5,816 # 4c330 <_nl_default_dirname>
   1310c:	a0f1b023          	sd	a5,-1536(gp) # 6cb08 <locale_alias_path.8461>
   13110:	bdf1                	j	12fec <_nl_expand_alias+0x40>
   13112:	a2818513          	addi	a0,gp,-1496 # 6cb30 <lock>
   13116:	7930e0ef          	jal	ra,220a8 <__lll_lock_wait_private>
   1311a:	b5e9                	j	12fe4 <_nl_expand_alias+0x38>
   1311c:	a0c1b023          	sd	a2,-1536(gp) # 6cb08 <locale_alias_path.8461>
   13120:	b735                	j	1304c <_nl_expand_alias+0xa0>

0000000000013122 <_nl_make_l10nflist>:
   13122:	7131                	addi	sp,sp,-192
   13124:	f02a                	sd	a0,32(sp)
   13126:	853a                	mv	a0,a4
   13128:	f922                	sd	s0,176(sp)
   1312a:	f526                	sd	s1,168(sp)
   1312c:	f14a                	sd	s2,160(sp)
   1312e:	ed4e                	sd	s3,152(sp)
   13130:	e952                	sd	s4,144(sp)
   13132:	e556                	sd	s5,136(sp)
   13134:	e15a                	sd	s6,128(sp)
   13136:	fcde                	sd	s7,120(sp)
   13138:	f8e2                	sd	s8,112(sp)
   1313a:	8936                	mv	s2,a3
   1313c:	84b2                	mv	s1,a2
   1313e:	8c3e                	mv	s8,a5
   13140:	e0be                	sd	a5,64(sp)
   13142:	fd06                	sd	ra,184(sp)
   13144:	f4e6                	sd	s9,104(sp)
   13146:	f0ea                	sd	s10,96(sp)
   13148:	ecee                	sd	s11,88(sp)
   1314a:	8a3a                	mv	s4,a4
   1314c:	8b2e                	mv	s6,a1
   1314e:	f442                	sd	a6,40(sp)
   13150:	f846                	sd	a7,48(sp)
   13152:	4c70b0ef          	jal	ra,1ee18 <strlen>
   13156:	47ce                	lw	a5,208(sp)
   13158:	00497993          	andi	s3,s2,4
   1315c:	2981                	sext.w	s3,s3
   1315e:	e4be                	sd	a5,72(sp)
   13160:	8aaa                	mv	s5,a0
   13162:	00248b93          	addi	s7,s1,2
   13166:	4401                	li	s0,0
   13168:	00098763          	beqz	s3,13176 <_nl_make_l10nflist+0x54>
   1316c:	8562                	mv	a0,s8
   1316e:	4ab0b0ef          	jal	ra,1ee18 <strlen>
   13172:	00150413          	addi	s0,a0,1
   13176:	00297793          	andi	a5,s2,2
   1317a:	00078d9b          	sext.w	s11,a5
   1317e:	9ade                	add	s5,s5,s7
   13180:	4b81                	li	s7,0
   13182:	000d8763          	beqz	s11,13190 <_nl_make_l10nflist+0x6e>
   13186:	7522                	ld	a0,40(sp)
   13188:	4910b0ef          	jal	ra,1ee18 <strlen>
   1318c:	00150b93          	addi	s7,a0,1
   13190:	00197d13          	andi	s10,s2,1
   13194:	9aa2                	add	s5,s5,s0
   13196:	4401                	li	s0,0
   13198:	000d0763          	beqz	s10,131a6 <_nl_make_l10nflist+0x84>
   1319c:	7542                	ld	a0,48(sp)
   1319e:	47b0b0ef          	jal	ra,1ee18 <strlen>
   131a2:	00150413          	addi	s0,a0,1
   131a6:	00897793          	andi	a5,s2,8
   131aa:	2781                	sext.w	a5,a5
   131ac:	fc3e                	sd	a5,56(sp)
   131ae:	9ade                	add	s5,s5,s7
   131b0:	4c01                	li	s8,0
   131b2:	c791                	beqz	a5,131be <_nl_make_l10nflist+0x9c>
   131b4:	650e                	ld	a0,192(sp)
   131b6:	4630b0ef          	jal	ra,1ee18 <strlen>
   131ba:	00150c13          	addi	s8,a0,1
   131be:	652e                	ld	a0,200(sp)
   131c0:	9456                	add	s0,s0,s5
   131c2:	4570b0ef          	jal	ra,1ee18 <strlen>
   131c6:	8baa                	mv	s7,a0
   131c8:	01840533          	add	a0,s0,s8
   131cc:	955e                	add	a0,a0,s7
   131ce:	0130a0ef          	jal	ra,1d9e0 <__libc_malloc>
   131d2:	842a                	mv	s0,a0
   131d4:	2e050463          	beqz	a0,134bc <_nl_make_l10nflist+0x39a>
   131d8:	8626                	mv	a2,s1
   131da:	85da                	mv	a1,s6
   131dc:	2df0c0ef          	jal	ra,1fcba <memcpy>
   131e0:	c89d                	beqz	s1,13216 <_nl_make_l10nflist+0xf4>
   131e2:	8c22                	mv	s8,s0
   131e4:	8562                	mv	a0,s8
   131e6:	4330b0ef          	jal	ra,1ee18 <strlen>
   131ea:	fff54693          	not	a3,a0
   131ee:	8ca6                	mv	s9,s1
   131f0:	9cb6                	add	s9,s9,a3
   131f2:	03a00a93          	li	s5,58
   131f6:	9562                	add	a0,a0,s8
   131f8:	000c8f63          	beqz	s9,13216 <_nl_make_l10nflist+0xf4>
   131fc:	00150c13          	addi	s8,a0,1
   13200:	01550023          	sb	s5,0(a0)
   13204:	8562                	mv	a0,s8
   13206:	4130b0ef          	jal	ra,1ee18 <strlen>
   1320a:	fff54693          	not	a3,a0
   1320e:	9cb6                	add	s9,s9,a3
   13210:	9562                	add	a0,a0,s8
   13212:	fe0c95e3          	bnez	s9,131fc <_nl_make_l10nflist+0xda>
   13216:	009407b3          	add	a5,s0,s1
   1321a:	02f00713          	li	a4,47
   1321e:	853e                	mv	a0,a5
   13220:	fee78fa3          	sb	a4,-1(a5)
   13224:	85d2                	mv	a1,s4
   13226:	2350c0ef          	jal	ra,1fc5a <__stpcpy>
   1322a:	87aa                	mv	a5,a0
   1322c:	1e099f63          	bnez	s3,1342a <_nl_make_l10nflist+0x308>
   13230:	00178513          	addi	a0,a5,1
   13234:	1a0d9a63          	bnez	s11,133e8 <_nl_make_l10nflist+0x2c6>
   13238:	1c0d1363          	bnez	s10,133fe <_nl_make_l10nflist+0x2dc>
   1323c:	7762                	ld	a4,56(sp)
   1323e:	1c071c63          	bnez	a4,13416 <_nl_make_l10nflist+0x2f4>
   13242:	65ae                	ld	a1,200(sp)
   13244:	02f00713          	li	a4,47
   13248:	00e78023          	sb	a4,0(a5)
   1324c:	001b8613          	addi	a2,s7,1
   13250:	26b0c0ef          	jal	ra,1fcba <memcpy>
   13254:	7782                	ld	a5,32(sp)
   13256:	0007ba83          	ld	s5,0(a5)
   1325a:	280a8463          	beqz	s5,134e2 <_nl_make_l10nflist+0x3c0>
   1325e:	8cd6                	mv	s9,s5
   13260:	4981                	li	s3,0
   13262:	000cb783          	ld	a5,0(s9)
   13266:	85a2                	mv	a1,s0
   13268:	853e                	mv	a0,a5
   1326a:	cb81                	beqz	a5,1327a <_nl_make_l10nflist+0x158>
   1326c:	2170b0ef          	jal	ra,1ec82 <strcmp>
   13270:	14050963          	beqz	a0,133c2 <_nl_make_l10nflist+0x2a0>
   13274:	00054763          	bltz	a0,13282 <_nl_make_l10nflist+0x160>
   13278:	89e6                	mv	s3,s9
   1327a:	018cbc83          	ld	s9,24(s9)
   1327e:	fe0c92e3          	bnez	s9,13262 <_nl_make_l10nflist+0x140>
   13282:	67a6                	ld	a5,72(sp)
   13284:	12078e63          	beqz	a5,133c0 <_nl_make_l10nflist+0x29e>
   13288:	22048e63          	beqz	s1,134c4 <_nl_make_l10nflist+0x3a2>
   1328c:	8ba6                	mv	s7,s1
   1328e:	8d5a                	mv	s10,s6
   13290:	4c81                	li	s9,0
   13292:	856a                	mv	a0,s10
   13294:	3850b0ef          	jal	ra,1ee18 <strlen>
   13298:	fff54693          	not	a3,a0
   1329c:	9bb6                	add	s7,s7,a3
   1329e:	0505                	addi	a0,a0,1
   132a0:	9d2a                	add	s10,s10,a0
   132a2:	0c85                	addi	s9,s9,1
   132a4:	fe0b97e3          	bnez	s7,13292 <_nl_make_l10nflist+0x170>
   132a8:	77f5                	lui	a5,0xffffd
   132aa:	55578793          	addi	a5,a5,1365 # ffffffffffffd555 <_end+0xfffffffffff8f4cd>
   132ae:	4019569b          	sraiw	a3,s2,0x1
   132b2:	8efd                	and	a3,a3,a5
   132b4:	6795                	lui	a5,0x5
   132b6:	55578793          	addi	a5,a5,1365 # 5555 <catch_hook+0x54fd>
   132ba:	00f977b3          	and	a5,s2,a5
   132be:	9ebd                	addw	a3,a3,a5
   132c0:	77fd                	lui	a5,0xfffff
   132c2:	4026d61b          	sraiw	a2,a3,0x2
   132c6:	33378793          	addi	a5,a5,819 # fffffffffffff333 <_end+0xfffffffffff912ab>
   132ca:	8e7d                	and	a2,a2,a5
   132cc:	678d                	lui	a5,0x3
   132ce:	33378793          	addi	a5,a5,819 # 3333 <catch_hook+0x32db>
   132d2:	8ff5                	and	a5,a5,a3
   132d4:	00c786bb          	addw	a3,a5,a2
   132d8:	4046d79b          	sraiw	a5,a3,0x4
   132dc:	9fb5                	addw	a5,a5,a3
   132de:	4087d69b          	sraiw	a3,a5,0x8
   132e2:	8abd                	andi	a3,a3,15
   132e4:	8bbd                	andi	a5,a5,15
   132e6:	97b6                	add	a5,a5,a3
   132e8:	4505                	li	a0,1
   132ea:	00f5153b          	sllw	a0,a0,a5
   132ee:	0512                	slli	a0,a0,0x4
   132f0:	03950533          	mul	a0,a0,s9
   132f4:	02850513          	addi	a0,a0,40
   132f8:	6e80a0ef          	jal	ra,1d9e0 <__libc_malloc>
   132fc:	8caa                	mv	s9,a0
   132fe:	1c050d63          	beqz	a0,134d8 <_nl_make_l10nflist+0x3b6>
   13302:	e100                	sd	s0,0(a0)
   13304:	8d26                	mv	s10,s1
   13306:	845a                	mv	s0,s6
   13308:	8522                	mv	a0,s0
   1330a:	30f0b0ef          	jal	ra,1ee18 <strlen>
   1330e:	fff54713          	not	a4,a0
   13312:	9d3a                	add	s10,s10,a4
   13314:	0505                	addi	a0,a0,1
   13316:	942a                	add	s0,s0,a0
   13318:	0b85                	addi	s7,s7,1
   1331a:	fe0d17e3          	bnez	s10,13308 <_nl_make_l10nflist+0x1e6>
   1331e:	4785                	li	a5,1
   13320:	12fb8263          	beq	s7,a5,13444 <_nl_make_l10nflist+0x322>
   13324:	00fca423          	sw	a5,8(s9)
   13328:	000cb823          	sd	zero,16(s9)
   1332c:	12098263          	beqz	s3,13450 <_nl_make_l10nflist+0x32e>
   13330:	0189b783          	ld	a5,24(s3)
   13334:	00fcbc23          	sd	a5,24(s9)
   13338:	0199bc23          	sd	s9,24(s3)
   1333c:	1c048c63          	beqz	s1,13514 <_nl_make_l10nflist+0x3f2>
   13340:	89a6                	mv	s3,s1
   13342:	845a                	mv	s0,s6
   13344:	4a81                	li	s5,0
   13346:	8522                	mv	a0,s0
   13348:	2d10b0ef          	jal	ra,1ee18 <strlen>
   1334c:	fff54793          	not	a5,a0
   13350:	99be                	add	s3,s3,a5
   13352:	0505                	addi	a0,a0,1
   13354:	942a                	add	s0,s0,a0
   13356:	0a85                	addi	s5,s5,1
   13358:	fe0997e3          	bnez	s3,13346 <_nl_make_l10nflist+0x224>
   1335c:	4785                	li	a5,1
   1335e:	8bca                	mv	s7,s2
   13360:	0cfa8f63          	beq	s5,a5,1343e <_nl_make_l10nflist+0x31c>
   13364:	140bce63          	bltz	s7,134c0 <_nl_make_l10nflist+0x39e>
   13368:	fff94a93          	not	s5,s2
   1336c:	4401                	li	s0,0
   1336e:	009b0db3          	add	s11,s6,s1
   13372:	59fd                	li	s3,-1
   13374:	015bf7b3          	and	a5,s7,s5
   13378:	2781                	sext.w	a5,a5
   1337a:	c3ed                	beqz	a5,1345c <_nl_make_l10nflist+0x33a>
   1337c:	3bfd                	addiw	s7,s7,-1
   1337e:	ff3b9be3          	bne	s7,s3,13374 <_nl_make_l10nflist+0x252>
   13382:	652e                	ld	a0,200(sp)
   13384:	0004c5b7          	lui	a1,0x4c
   13388:	462d                	li	a2,11
   1338a:	3c858593          	addi	a1,a1,968 # 4c3c8 <_nl_default_default_domain+0x80>
   1338e:	3450b0ef          	jal	ra,1eed2 <strncmp>
   13392:	e105                	bnez	a0,133b2 <_nl_make_l10nflist+0x290>
   13394:	00094f63          	bltz	s2,133b2 <_nl_make_l10nflist+0x290>
   13398:	fff94993          	not	s3,s2
   1339c:	4b05                	li	s6,1
   1339e:	0004cab7          	lui	s5,0x4c
   133a2:	54fd                	li	s1,-1
   133a4:	013977b3          	and	a5,s2,s3
   133a8:	12078f63          	beqz	a5,134e6 <_nl_make_l10nflist+0x3c4>
   133ac:	397d                	addiw	s2,s2,-1
   133ae:	fe991be3          	bne	s2,s1,133a4 <_nl_make_l10nflist+0x282>
   133b2:	00440793          	addi	a5,s0,4
   133b6:	078e                	slli	a5,a5,0x3
   133b8:	97e6                	add	a5,a5,s9
   133ba:	0007b023          	sd	zero,0(a5)
   133be:	a029                	j	133c8 <_nl_make_l10nflist+0x2a6>
   133c0:	4c81                	li	s9,0
   133c2:	8522                	mv	a0,s0
   133c4:	2950a0ef          	jal	ra,1de58 <__free>
   133c8:	70ea                	ld	ra,184(sp)
   133ca:	744a                	ld	s0,176(sp)
   133cc:	8566                	mv	a0,s9
   133ce:	74aa                	ld	s1,168(sp)
   133d0:	790a                	ld	s2,160(sp)
   133d2:	69ea                	ld	s3,152(sp)
   133d4:	6a4a                	ld	s4,144(sp)
   133d6:	6aaa                	ld	s5,136(sp)
   133d8:	6b0a                	ld	s6,128(sp)
   133da:	7be6                	ld	s7,120(sp)
   133dc:	7c46                	ld	s8,112(sp)
   133de:	7ca6                	ld	s9,104(sp)
   133e0:	7d06                	ld	s10,96(sp)
   133e2:	6de6                	ld	s11,88(sp)
   133e4:	6129                	addi	sp,sp,192
   133e6:	8082                	ret
   133e8:	75a2                	ld	a1,40(sp)
   133ea:	02e00713          	li	a4,46
   133ee:	00e78023          	sb	a4,0(a5)
   133f2:	0690c0ef          	jal	ra,1fc5a <__stpcpy>
   133f6:	87aa                	mv	a5,a0
   133f8:	0505                	addi	a0,a0,1
   133fa:	e40d01e3          	beqz	s10,1323c <_nl_make_l10nflist+0x11a>
   133fe:	75c2                	ld	a1,48(sp)
   13400:	02e00713          	li	a4,46
   13404:	00e78023          	sb	a4,0(a5)
   13408:	0530c0ef          	jal	ra,1fc5a <__stpcpy>
   1340c:	7762                	ld	a4,56(sp)
   1340e:	87aa                	mv	a5,a0
   13410:	0505                	addi	a0,a0,1
   13412:	e20708e3          	beqz	a4,13242 <_nl_make_l10nflist+0x120>
   13416:	658e                	ld	a1,192(sp)
   13418:	04000713          	li	a4,64
   1341c:	00e78023          	sb	a4,0(a5)
   13420:	03b0c0ef          	jal	ra,1fc5a <__stpcpy>
   13424:	87aa                	mv	a5,a0
   13426:	0505                	addi	a0,a0,1
   13428:	bd29                	j	13242 <_nl_make_l10nflist+0x120>
   1342a:	6586                	ld	a1,64(sp)
   1342c:	05f00713          	li	a4,95
   13430:	00e50023          	sb	a4,0(a0)
   13434:	0505                	addi	a0,a0,1
   13436:	0250c0ef          	jal	ra,1fc5a <__stpcpy>
   1343a:	87aa                	mv	a5,a0
   1343c:	bbd5                	j	13230 <_nl_make_l10nflist+0x10e>
   1343e:	fff90b9b          	addiw	s7,s2,-1
   13442:	b70d                	j	13364 <_nl_make_l10nflist+0x242>
   13444:	00397793          	andi	a5,s2,3
   13448:	17f5                	addi	a5,a5,-3
   1344a:	0017b793          	seqz	a5,a5
   1344e:	bdd9                	j	13324 <_nl_make_l10nflist+0x202>
   13450:	7782                	ld	a5,32(sp)
   13452:	015cbc23          	sd	s5,24(s9)
   13456:	0197b023          	sd	s9,0(a5)
   1345a:	b5cd                	j	1333c <_nl_make_l10nflist+0x21a>
   1345c:	00341f13          	slli	t5,s0,0x3
   13460:	4c01                	li	s8,0
   13462:	01ec8d33          	add	s10,s9,t5
   13466:	040c0763          	beqz	s8,134b4 <_nl_make_l10nflist+0x392>
   1346a:	8562                	mv	a0,s8
   1346c:	f1bc78e3          	bleu	s11,s8,1337c <_nl_make_l10nflist+0x25a>
   13470:	1a90b0ef          	jal	ra,1ee18 <strlen>
   13474:	0505                	addi	a0,a0,1
   13476:	9c2a                	add	s8,s8,a0
   13478:	f1bc72e3          	bleu	s11,s8,1337c <_nl_make_l10nflist+0x25a>
   1347c:	f00c00e3          	beqz	s8,1337c <_nl_make_l10nflist+0x25a>
   13480:	8562                	mv	a0,s8
   13482:	1970b0ef          	jal	ra,1ee18 <strlen>
   13486:	4785                	li	a5,1
   13488:	e83e                	sd	a5,16(sp)
   1348a:	67ae                	ld	a5,200(sp)
   1348c:	00150613          	addi	a2,a0,1
   13490:	78c2                	ld	a7,48(sp)
   13492:	e43e                	sd	a5,8(sp)
   13494:	678e                	ld	a5,192(sp)
   13496:	7822                	ld	a6,40(sp)
   13498:	7502                	ld	a0,32(sp)
   1349a:	e03e                	sd	a5,0(sp)
   1349c:	6786                	ld	a5,64(sp)
   1349e:	8752                	mv	a4,s4
   134a0:	86de                	mv	a3,s7
   134a2:	85e2                	mv	a1,s8
   134a4:	c7fff0ef          	jal	ra,13122 <_nl_make_l10nflist>
   134a8:	02ad3023          	sd	a0,32(s10) # 2020 <catch_hook+0x1fc8>
   134ac:	0405                	addi	s0,s0,1
   134ae:	0d21                	addi	s10,s10,8
   134b0:	fa0c1de3          	bnez	s8,1346a <_nl_make_l10nflist+0x348>
   134b4:	ec0484e3          	beqz	s1,1337c <_nl_make_l10nflist+0x25a>
   134b8:	8c5a                	mv	s8,s6
   134ba:	b7d9                	j	13480 <_nl_make_l10nflist+0x35e>
   134bc:	4c81                	li	s9,0
   134be:	b729                	j	133c8 <_nl_make_l10nflist+0x2a6>
   134c0:	4401                	li	s0,0
   134c2:	b5c1                	j	13382 <_nl_make_l10nflist+0x260>
   134c4:	02800513          	li	a0,40
   134c8:	5180a0ef          	jal	ra,1d9e0 <__libc_malloc>
   134cc:	8caa                	mv	s9,a0
   134ce:	c509                	beqz	a0,134d8 <_nl_make_l10nflist+0x3b6>
   134d0:	008cb023          	sd	s0,0(s9)
   134d4:	4785                	li	a5,1
   134d6:	b5b9                	j	13324 <_nl_make_l10nflist+0x202>
   134d8:	8522                	mv	a0,s0
   134da:	17f0a0ef          	jal	ra,1de58 <__free>
   134de:	4c81                	li	s9,0
   134e0:	b5e5                	j	133c8 <_nl_make_l10nflist+0x2a6>
   134e2:	4981                	li	s3,0
   134e4:	bb79                	j	13282 <_nl_make_l10nflist+0x160>
   134e6:	67ae                	ld	a5,200(sp)
   134e8:	78c2                	ld	a7,48(sp)
   134ea:	7822                	ld	a6,40(sp)
   134ec:	e43e                	sd	a5,8(sp)
   134ee:	678e                	ld	a5,192(sp)
   134f0:	7502                	ld	a0,32(sp)
   134f2:	86ca                	mv	a3,s2
   134f4:	e03e                	sd	a5,0(sp)
   134f6:	6786                	ld	a5,64(sp)
   134f8:	e85a                	sd	s6,16(sp)
   134fa:	8752                	mv	a4,s4
   134fc:	466d                	li	a2,27
   134fe:	3d8a8593          	addi	a1,s5,984 # 4c3d8 <_nl_default_default_domain+0x90>
   13502:	c21ff0ef          	jal	ra,13122 <_nl_make_l10nflist>
   13506:	00440793          	addi	a5,s0,4
   1350a:	078e                	slli	a5,a5,0x3
   1350c:	97e6                	add	a5,a5,s9
   1350e:	0405                	addi	s0,s0,1
   13510:	e388                	sd	a0,0(a5)
   13512:	bd69                	j	133ac <_nl_make_l10nflist+0x28a>
   13514:	8bca                	mv	s7,s2
   13516:	b5b9                	j	13364 <_nl_make_l10nflist+0x242>

0000000000013518 <_nl_normalize_codeset>:
   13518:	7179                	addi	sp,sp,-48
   1351a:	f406                	sd	ra,40(sp)
   1351c:	f022                	sd	s0,32(sp)
   1351e:	ec26                	sd	s1,24(sp)
   13520:	e84a                	sd	s2,16(sp)
   13522:	e44e                	sd	s3,8(sp)
   13524:	cde9                	beqz	a1,135fe <_nl_normalize_codeset+0xe6>
   13526:	0005c9b7          	lui	s3,0x5c
   1352a:	e5898993          	addi	s3,s3,-424 # 5be58 <_nl_C_locobj>
   1352e:	0689b483          	ld	s1,104(s3)
   13532:	00a58633          	add	a2,a1,a0
   13536:	892e                	mv	s2,a1
   13538:	842a                	mv	s0,a0
   1353a:	872a                	mv	a4,a0
   1353c:	4805                	li	a6,1
   1353e:	4501                	li	a0,0
   13540:	45a5                	li	a1,9
   13542:	00074783          	lbu	a5,0(a4)
   13546:	0705                	addi	a4,a4,1
   13548:	00179693          	slli	a3,a5,0x1
   1354c:	96a6                	add	a3,a3,s1
   1354e:	0006d683          	lhu	a3,0(a3)
   13552:	fd07879b          	addiw	a5,a5,-48
   13556:	8aa1                	andi	a3,a3,8
   13558:	c689                	beqz	a3,13562 <_nl_normalize_codeset+0x4a>
   1355a:	0505                	addi	a0,a0,1
   1355c:	00f5f363          	bleu	a5,a1,13562 <_nl_normalize_codeset+0x4a>
   13560:	4801                	li	a6,0
   13562:	fee610e3          	bne	a2,a4,13542 <_nl_normalize_codeset+0x2a>
   13566:	06081663          	bnez	a6,135d2 <_nl_normalize_codeset+0xba>
   1356a:	0505                	addi	a0,a0,1
   1356c:	4740a0ef          	jal	ra,1d9e0 <__libc_malloc>
   13570:	88aa                	mv	a7,a0
   13572:	c525                	beqz	a0,135da <_nl_normalize_codeset+0xc2>
   13574:	0709b303          	ld	t1,112(s3)
   13578:	86a2                	mv	a3,s0
   1357a:	4801                	li	a6,0
   1357c:	4e25                	li	t3,9
   1357e:	a809                	j	13590 <_nl_normalize_codeset+0x78>
   13580:	421c                	lw	a5,0(a2)
   13582:	0885                	addi	a7,a7,1
   13584:	fef88fa3          	sb	a5,-1(a7)
   13588:	0805                	addi	a6,a6,1
   1358a:	0685                	addi	a3,a3,1
   1358c:	03287a63          	bleu	s2,a6,135c0 <_nl_normalize_codeset+0xa8>
   13590:	0006c783          	lbu	a5,0(a3)
   13594:	00179713          	slli	a4,a5,0x1
   13598:	9726                	add	a4,a4,s1
   1359a:	00075703          	lhu	a4,0(a4)
   1359e:	00279613          	slli	a2,a5,0x2
   135a2:	961a                	add	a2,a2,t1
   135a4:	40077713          	andi	a4,a4,1024
   135a8:	fd07859b          	addiw	a1,a5,-48
   135ac:	fb71                	bnez	a4,13580 <_nl_normalize_codeset+0x68>
   135ae:	fcbe6de3          	bltu	t3,a1,13588 <_nl_normalize_codeset+0x70>
   135b2:	00f88023          	sb	a5,0(a7)
   135b6:	0805                	addi	a6,a6,1
   135b8:	0885                	addi	a7,a7,1
   135ba:	0685                	addi	a3,a3,1
   135bc:	fd286ae3          	bltu	a6,s2,13590 <_nl_normalize_codeset+0x78>
   135c0:	00088023          	sb	zero,0(a7)
   135c4:	70a2                	ld	ra,40(sp)
   135c6:	7402                	ld	s0,32(sp)
   135c8:	64e2                	ld	s1,24(sp)
   135ca:	6942                	ld	s2,16(sp)
   135cc:	69a2                	ld	s3,8(sp)
   135ce:	6145                	addi	sp,sp,48
   135d0:	8082                	ret
   135d2:	0511                	addi	a0,a0,4
   135d4:	40c0a0ef          	jal	ra,1d9e0 <__libc_malloc>
   135d8:	e909                	bnez	a0,135ea <_nl_normalize_codeset+0xd2>
   135da:	70a2                	ld	ra,40(sp)
   135dc:	7402                	ld	s0,32(sp)
   135de:	64e2                	ld	s1,24(sp)
   135e0:	6942                	ld	s2,16(sp)
   135e2:	69a2                	ld	s3,8(sp)
   135e4:	4501                	li	a0,0
   135e6:	6145                	addi	sp,sp,48
   135e8:	8082                	ret
   135ea:	006f77b7          	lui	a5,0x6f7
   135ee:	3697879b          	addiw	a5,a5,873
   135f2:	c11c                	sw	a5,0(a0)
   135f4:	00350893          	addi	a7,a0,3
   135f8:	0689b483          	ld	s1,104(s3)
   135fc:	bfa5                	j	13574 <_nl_normalize_codeset+0x5c>
   135fe:	4511                	li	a0,4
   13600:	3e00a0ef          	jal	ra,1d9e0 <__libc_malloc>
   13604:	d979                	beqz	a0,135da <_nl_normalize_codeset+0xc2>
   13606:	006f77b7          	lui	a5,0x6f7
   1360a:	3697879b          	addiw	a5,a5,873
   1360e:	c11c                	sw	a5,0(a0)
   13610:	00350893          	addi	a7,a0,3
   13614:	b775                	j	135c0 <_nl_normalize_codeset+0xa8>

0000000000013616 <_nl_explode_name>:
   13616:	711d                	addi	sp,sp,-96
   13618:	e4a6                	sd	s1,72(sp)
   1361a:	fc4e                	sd	s3,56(sp)
   1361c:	f852                	sd	s4,48(sp)
   1361e:	f456                	sd	s5,40(sp)
   13620:	ec86                	sd	ra,88(sp)
   13622:	e8a2                	sd	s0,80(sp)
   13624:	e0ca                	sd	s2,64(sp)
   13626:	f05a                	sd	s6,32(sp)
   13628:	ec5e                	sd	s7,24(sp)
   1362a:	00063023          	sd	zero,0(a2)
   1362e:	0006b023          	sd	zero,0(a3)
   13632:	00073023          	sd	zero,0(a4)
   13636:	0007b023          	sd	zero,0(a5) # 6f7000 <_end+0x688f78>
   1363a:	e188                	sd	a0,0(a1)
   1363c:	00054583          	lbu	a1,0(a0)
   13640:	89ba                	mv	s3,a4
   13642:	8ab2                	mv	s5,a2
   13644:	0bf5f713          	andi	a4,a1,191
   13648:	8a36                	mv	s4,a3
   1364a:	84aa                	mv	s1,a0
   1364c:	cf2d                	beqz	a4,136c6 <_nl_explode_name+0xb0>
   1364e:	05f00713          	li	a4,95
   13652:	06e58a63          	beq	a1,a4,136c6 <_nl_explode_name+0xb0>
   13656:	02e00713          	li	a4,46
   1365a:	06e58663          	beq	a1,a4,136c6 <_nl_explode_name+0xb0>
   1365e:	05f00813          	li	a6,95
   13662:	04000893          	li	a7,64
   13666:	02e00313          	li	t1,46
   1366a:	a801                	j	1367a <_nl_explode_name+0x64>
   1366c:	09058763          	beq	a1,a6,136fa <_nl_explode_name+0xe4>
   13670:	0d158463          	beq	a1,a7,13738 <_nl_explode_name+0x122>
   13674:	8522                	mv	a0,s0
   13676:	04658663          	beq	a1,t1,136c2 <_nl_explode_name+0xac>
   1367a:	00154583          	lbu	a1,1(a0)
   1367e:	00150413          	addi	s0,a0,1
   13682:	f5ed                	bnez	a1,1366c <_nl_explode_name+0x56>
   13684:	4901                	li	s2,0
   13686:	04848063          	beq	s1,s0,136c6 <_nl_explode_name+0xb0>
   1368a:	0009b403          	ld	s0,0(s3)
   1368e:	000a3783          	ld	a5,0(s4)
   13692:	c791                	beqz	a5,1369e <_nl_explode_name+0x88>
   13694:	0007c783          	lbu	a5,0(a5)
   13698:	e399                	bnez	a5,1369e <_nl_explode_name+0x88>
   1369a:	ffb97913          	andi	s2,s2,-5
   1369e:	c411                	beqz	s0,136aa <_nl_explode_name+0x94>
   136a0:	00044783          	lbu	a5,0(s0)
   136a4:	e399                	bnez	a5,136aa <_nl_explode_name+0x94>
   136a6:	ffd97913          	andi	s2,s2,-3
   136aa:	60e6                	ld	ra,88(sp)
   136ac:	6446                	ld	s0,80(sp)
   136ae:	854a                	mv	a0,s2
   136b0:	64a6                	ld	s1,72(sp)
   136b2:	6906                	ld	s2,64(sp)
   136b4:	79e2                	ld	s3,56(sp)
   136b6:	7a42                	ld	s4,48(sp)
   136b8:	7aa2                	ld	s5,40(sp)
   136ba:	7b02                	ld	s6,32(sp)
   136bc:	6be2                	ld	s7,24(sp)
   136be:	6125                	addi	sp,sp,96
   136c0:	8082                	ret
   136c2:	08849a63          	bne	s1,s0,13756 <_nl_explode_name+0x140>
   136c6:	8526                	mv	a0,s1
   136c8:	7500b0ef          	jal	ra,1ee18 <strlen>
   136cc:	00a48433          	add	s0,s1,a0
   136d0:	00044703          	lbu	a4,0(s0)
   136d4:	4901                	li	s2,0
   136d6:	04000793          	li	a5,64
   136da:	faf718e3          	bne	a4,a5,1368a <_nl_explode_name+0x74>
   136de:	00140793          	addi	a5,s0,1
   136e2:	00040023          	sb	zero,0(s0)
   136e6:	00fab023          	sd	a5,0(s5)
   136ea:	00144783          	lbu	a5,1(s0)
   136ee:	0009b403          	ld	s0,0(s3)
   136f2:	dfd1                	beqz	a5,1368e <_nl_explode_name+0x78>
   136f4:	00896913          	ori	s2,s2,8
   136f8:	bf59                	j	1368e <_nl_explode_name+0x78>
   136fa:	fc8486e3          	beq	s1,s0,136c6 <_nl_explode_name+0xb0>
   136fe:	00040023          	sb	zero,0(s0)
   13702:	0509                	addi	a0,a0,2
   13704:	00aa3023          	sd	a0,0(s4)
   13708:	00144703          	lbu	a4,1(s0)
   1370c:	c705                	beqz	a4,13734 <_nl_explode_name+0x11e>
   1370e:	02e00693          	li	a3,46
   13712:	0ad70563          	beq	a4,a3,137bc <_nl_explode_name+0x1a6>
   13716:	04000693          	li	a3,64
   1371a:	0ad70563          	beq	a4,a3,137c4 <_nl_explode_name+0x1ae>
   1371e:	02e00713          	li	a4,46
   13722:	a029                	j	1372c <_nl_explode_name+0x116>
   13724:	08e58c63          	beq	a1,a4,137bc <_nl_explode_name+0x1a6>
   13728:	08d58e63          	beq	a1,a3,137c4 <_nl_explode_name+0x1ae>
   1372c:	0505                	addi	a0,a0,1
   1372e:	00054583          	lbu	a1,0(a0)
   13732:	f9ed                	bnez	a1,13724 <_nl_explode_name+0x10e>
   13734:	4911                	li	s2,4
   13736:	bf91                	j	1368a <_nl_explode_name+0x74>
   13738:	4901                	li	s2,0
   1373a:	f88486e3          	beq	s1,s0,136c6 <_nl_explode_name+0xb0>
   1373e:	00140793          	addi	a5,s0,1
   13742:	00040023          	sb	zero,0(s0)
   13746:	00fab023          	sd	a5,0(s5)
   1374a:	00144783          	lbu	a5,1(s0)
   1374e:	0009b403          	ld	s0,0(s3)
   13752:	f3cd                	bnez	a5,136f4 <_nl_explode_name+0xde>
   13754:	bf2d                	j	1368e <_nl_explode_name+0x78>
   13756:	4909                	li	s2,2
   13758:	4b01                	li	s6,0
   1375a:	00040023          	sb	zero,0(s0)
   1375e:	00140513          	addi	a0,s0,1
   13762:	00a9b023          	sd	a0,0(s3)
   13766:	00144703          	lbu	a4,1(s0)
   1376a:	0bf77693          	andi	a3,a4,191
   1376e:	caad                	beqz	a3,137e0 <_nl_explode_name+0x1ca>
   13770:	84aa                	mv	s1,a0
   13772:	04000713          	li	a4,64
   13776:	a021                	j	1377e <_nl_explode_name+0x168>
   13778:	02e58f63          	beq	a1,a4,137b6 <_nl_explode_name+0x1a0>
   1377c:	84a2                	mv	s1,s0
   1377e:	0014c583          	lbu	a1,1(s1)
   13782:	00148413          	addi	s0,s1,1
   13786:	f9ed                	bnez	a1,13778 <_nl_explode_name+0x162>
   13788:	04850763          	beq	a0,s0,137d6 <_nl_explode_name+0x1c0>
   1378c:	40a405b3          	sub	a1,s0,a0
   13790:	e43e                	sd	a5,8(sp)
   13792:	d87ff0ef          	jal	ra,13518 <_nl_normalize_codeset>
   13796:	67a2                	ld	a5,8(sp)
   13798:	8baa                	mv	s7,a0
   1379a:	e388                	sd	a0,0(a5)
   1379c:	c521                	beqz	a0,137e4 <_nl_explode_name+0x1ce>
   1379e:	0009b503          	ld	a0,0(s3)
   137a2:	85de                	mv	a1,s7
   137a4:	4de0b0ef          	jal	ra,1ec82 <strcmp>
   137a8:	c10d                	beqz	a0,137ca <_nl_explode_name+0x1b4>
   137aa:	003b6913          	ori	s2,s6,3
   137ae:	2901                	sext.w	s2,s2
   137b0:	0014c703          	lbu	a4,1(s1)
   137b4:	b70d                	j	136d6 <_nl_explode_name+0xc0>
   137b6:	fc851be3          	bne	a0,s0,1378c <_nl_explode_name+0x176>
   137ba:	b715                	j	136de <_nl_explode_name+0xc8>
   137bc:	842a                	mv	s0,a0
   137be:	4919                	li	s2,6
   137c0:	4b11                	li	s6,4
   137c2:	bf61                	j	1375a <_nl_explode_name+0x144>
   137c4:	842a                	mv	s0,a0
   137c6:	4911                	li	s2,4
   137c8:	bf19                	j	136de <_nl_explode_name+0xc8>
   137ca:	855e                	mv	a0,s7
   137cc:	68c0a0ef          	jal	ra,1de58 <__free>
   137d0:	0014c703          	lbu	a4,1(s1)
   137d4:	b709                	j	136d6 <_nl_explode_name+0xc0>
   137d6:	000a3783          	ld	a5,0(s4)
   137da:	ea079de3          	bnez	a5,13694 <_nl_explode_name+0x7e>
   137de:	b5c9                	j	136a0 <_nl_explode_name+0x8a>
   137e0:	842a                	mv	s0,a0
   137e2:	bdd5                	j	136d6 <_nl_explode_name+0xc0>
   137e4:	597d                	li	s2,-1
   137e6:	b5d1                	j	136aa <_nl_explode_name+0x94>

00000000000137e8 <__gettext_free_exp>:
   137e8:	c521                	beqz	a0,13830 <__gettext_free_exp+0x48>
   137ea:	411c                	lw	a5,0(a0)
   137ec:	1141                	addi	sp,sp,-16
   137ee:	e022                	sd	s0,0(sp)
   137f0:	e406                	sd	ra,8(sp)
   137f2:	4709                	li	a4,2
   137f4:	842a                	mv	s0,a0
   137f6:	02e78163          	beq	a5,a4,13818 <__gettext_free_exp+0x30>
   137fa:	470d                	li	a4,3
   137fc:	00e78b63          	beq	a5,a4,13812 <__gettext_free_exp+0x2a>
   13800:	4705                	li	a4,1
   13802:	00e78e63          	beq	a5,a4,1381e <__gettext_free_exp+0x36>
   13806:	8522                	mv	a0,s0
   13808:	6402                	ld	s0,0(sp)
   1380a:	60a2                	ld	ra,8(sp)
   1380c:	0141                	addi	sp,sp,16
   1380e:	64a0a06f          	j	1de58 <__free>
   13812:	6d08                	ld	a0,24(a0)
   13814:	fd5ff0ef          	jal	ra,137e8 <__gettext_free_exp>
   13818:	6808                	ld	a0,16(s0)
   1381a:	fcfff0ef          	jal	ra,137e8 <__gettext_free_exp>
   1381e:	6408                	ld	a0,8(s0)
   13820:	fc9ff0ef          	jal	ra,137e8 <__gettext_free_exp>
   13824:	8522                	mv	a0,s0
   13826:	6402                	ld	s0,0(sp)
   13828:	60a2                	ld	ra,8(sp)
   1382a:	0141                	addi	sp,sp,16
   1382c:	62c0a06f          	j	1de58 <__free>
   13830:	8082                	ret

0000000000013832 <new_exp>:
   13832:	7139                	addi	sp,sp,-64
   13834:	f426                	sd	s1,40(sp)
   13836:	e456                	sd	s5,8(sp)
   13838:	fc06                	sd	ra,56(sp)
   1383a:	f822                	sd	s0,48(sp)
   1383c:	f04a                	sd	s2,32(sp)
   1383e:	ec4e                	sd	s3,24(sp)
   13840:	e852                	sd	s4,16(sp)
   13842:	fff5049b          	addiw	s1,a0,-1
   13846:	57fd                	li	a5,-1
   13848:	8aae                	mv	s5,a1
   1384a:	08f48863          	beq	s1,a5,138da <new_exp+0xa8>
   1384e:	00349993          	slli	s3,s1,0x3
   13852:	01360433          	add	s0,a2,s3
   13856:	00043903          	ld	s2,0(s0)
   1385a:	04090b63          	beqz	s2,138b0 <new_exp+0x7e>
   1385e:	8a2a                	mv	s4,a0
   13860:	8722                	mv	a4,s0
   13862:	87a6                	mv	a5,s1
   13864:	567d                	li	a2,-1
   13866:	a019                	j	1386c <new_exp+0x3a>
   13868:	6314                	ld	a3,0(a4)
   1386a:	c2b9                	beqz	a3,138b0 <new_exp+0x7e>
   1386c:	37fd                	addiw	a5,a5,-1
   1386e:	1761                	addi	a4,a4,-8
   13870:	fec79ce3          	bne	a5,a2,13868 <new_exp+0x36>
   13874:	02000513          	li	a0,32
   13878:	1680a0ef          	jal	ra,1d9e0 <__libc_malloc>
   1387c:	c915                	beqz	a0,138b0 <new_exp+0x7e>
   1387e:	00898793          	addi	a5,s3,8
   13882:	97aa                	add	a5,a5,a0
   13884:	01452023          	sw	s4,0(a0)
   13888:	01552223          	sw	s5,4(a0)
   1388c:	0127b023          	sd	s2,0(a5)
   13890:	577d                	li	a4,-1
   13892:	34fd                	addiw	s1,s1,-1
   13894:	1461                	addi	s0,s0,-8
   13896:	17e1                	addi	a5,a5,-8
   13898:	02e48863          	beq	s1,a4,138c8 <new_exp+0x96>
   1389c:	00043903          	ld	s2,0(s0)
   138a0:	34fd                	addiw	s1,s1,-1
   138a2:	1461                	addi	s0,s0,-8
   138a4:	0127b023          	sd	s2,0(a5)
   138a8:	17e1                	addi	a5,a5,-8
   138aa:	fee499e3          	bne	s1,a4,1389c <new_exp+0x6a>
   138ae:	a829                	j	138c8 <new_exp+0x96>
   138b0:	59fd                	li	s3,-1
   138b2:	a019                	j	138b8 <new_exp+0x86>
   138b4:	00043903          	ld	s2,0(s0)
   138b8:	854a                	mv	a0,s2
   138ba:	34fd                	addiw	s1,s1,-1
   138bc:	f2dff0ef          	jal	ra,137e8 <__gettext_free_exp>
   138c0:	1461                	addi	s0,s0,-8
   138c2:	ff3499e3          	bne	s1,s3,138b4 <new_exp+0x82>
   138c6:	4501                	li	a0,0
   138c8:	70e2                	ld	ra,56(sp)
   138ca:	7442                	ld	s0,48(sp)
   138cc:	74a2                	ld	s1,40(sp)
   138ce:	7902                	ld	s2,32(sp)
   138d0:	69e2                	ld	s3,24(sp)
   138d2:	6a42                	ld	s4,16(sp)
   138d4:	6aa2                	ld	s5,8(sp)
   138d6:	6121                	addi	sp,sp,64
   138d8:	8082                	ret
   138da:	02000513          	li	a0,32
   138de:	1020a0ef          	jal	ra,1d9e0 <__libc_malloc>
   138e2:	d175                	beqz	a0,138c6 <new_exp+0x94>
   138e4:	00052023          	sw	zero,0(a0)
   138e8:	01552223          	sw	s5,4(a0)
   138ec:	bff1                	j	138c8 <new_exp+0x96>

00000000000138ee <__gettextparse>:
   138ee:	0006b7b7          	lui	a5,0x6b
   138f2:	81010113          	addi	sp,sp,-2032
   138f6:	ba07b783          	ld	a5,-1120(a5) # 6aba0 <__fini_array_end>
   138fa:	6705                	lui	a4,0x1
   138fc:	7e813023          	sd	s0,2016(sp)
   13900:	7c913c23          	sd	s1,2008(sp)
   13904:	7d313423          	sd	s3,1992(sp)
   13908:	7d413023          	sd	s4,1984(sp)
   1390c:	7b513c23          	sd	s5,1976(sp)
   13910:	7b613823          	sd	s6,1968(sp)
   13914:	7b713423          	sd	s7,1960(sp)
   13918:	7b813023          	sd	s8,1952(sp)
   1391c:	79913c23          	sd	s9,1944(sp)
   13920:	79a13823          	sd	s10,1936(sp)
   13924:	79b13423          	sd	s11,1928(sp)
   13928:	7e113423          	sd	ra,2024(sp)
   1392c:	7d213823          	sd	s2,2000(sp)
   13930:	82870713          	addi	a4,a4,-2008 # 828 <catch_hook+0x7d0>
   13934:	7171                	addi	sp,sp,-176
   13936:	970a                	add	a4,a4,sp
   13938:	e31c                	sd	a5,0(a4)
   1393a:	87018793          	addi	a5,gp,-1936 # 6c978 <yydefgoto>
   1393e:	ec3e                	sd	a5,24(sp)
   13940:	0004cc37          	lui	s8,0x4c
   13944:	87818793          	addi	a5,gp,-1928 # 6c980 <yypgoto>
   13948:	05810a13          	addi	s4,sp,88
   1394c:	13a4                	addi	s1,sp,488
   1394e:	0004c6b7          	lui	a3,0x4c
   13952:	f83e                	sd	a5,48(sp)
   13954:	0004cab7          	lui	s5,0x4c
   13958:	430c0793          	addi	a5,s8,1072 # 4c430 <_nl_default_default_domain+0xe8>
   1395c:	f02a                	sd	a0,32(sp)
   1395e:	04011c23          	sh	zero,88(sp)
   13962:	e802                	sd	zero,16(sp)
   13964:	4b81                	li	s7,0
   13966:	59f9                	li	s3,-2
   13968:	0c800c93          	li	s9,200
   1396c:	e426                	sd	s1,8(sp)
   1396e:	8452                	mv	s0,s4
   13970:	8dd2                	mv	s11,s4
   13972:	62868d13          	addi	s10,a3,1576 # 4c628 <yypact>
   13976:	3f8a8a93          	addi	s5,s5,1016 # 4c3f8 <_nl_default_default_domain+0xb0>
   1397a:	f43e                	sd	a5,40(sp)
   1397c:	017d0733          	add	a4,s10,s7
   13980:	00070703          	lb	a4,0(a4)
   13984:	5659                	li	a2,-10
   13986:	853a                	mv	a0,a4
   13988:	02c70663          	beq	a4,a2,139b4 <__gettextparse+0xc6>
   1398c:	5679                	li	a2,-2
   1398e:	1ec98863          	beq	s3,a2,13b7e <__gettextparse+0x290>
   13992:	23305963          	blez	s3,13bc4 <__gettextparse+0x2d6>
   13996:	013d0733          	add	a4,s10,s3
   1399a:	0d074603          	lbu	a2,208(a4)
   1399e:	00c5073b          	addw	a4,a0,a2
   139a2:	03600593          	li	a1,54
   139a6:	00e5e763          	bltu	a1,a4,139b4 <__gettextparse+0xc6>
   139aa:	976a                	add	a4,a4,s10
   139ac:	02070583          	lb	a1,32(a4)
   139b0:	1ec58c63          	beq	a1,a2,13ba8 <__gettextparse+0x2ba>
   139b4:	017d0733          	add	a4,s10,s7
   139b8:	09074703          	lbu	a4,144(a4)
   139bc:	0007059b          	sext.w	a1,a4
   139c0:	c18d                	beqz	a1,139e2 <__gettextparse+0xf4>
   139c2:	00bd07b3          	add	a5,s10,a1
   139c6:	0b07c603          	lbu	a2,176(a5)
   139ca:	4785                	li	a5,1
   139cc:	4335                	li	t1,13
   139ce:	9f91                	subw	a5,a5,a2
   139d0:	078e                	slli	a5,a5,0x3
   139d2:	97a6                	add	a5,a5,s1
   139d4:	6388                	ld	a0,0(a5)
   139d6:	2ee36763          	bltu	t1,a4,13cc4 <__gettextparse+0x3d6>
   139da:	070a                	slli	a4,a4,0x2
   139dc:	9756                	add	a4,a4,s5
   139de:	431c                	lw	a5,0(a4)
   139e0:	8782                	jr	a5
   139e2:	67c2                	ld	a5,16(sp)
   139e4:	470d                	li	a4,3
   139e6:	0ae78763          	beq	a5,a4,13a94 <__gettextparse+0x1a6>
   139ea:	5659                	li	a2,-10
   139ec:	03600593          	li	a1,54
   139f0:	4505                	li	a0,1
   139f2:	017d07b3          	add	a5,s10,s7
   139f6:	00078703          	lb	a4,0(a5)
   139fa:	00c70b63          	beq	a4,a2,13a10 <__gettextparse+0x122>
   139fe:	0017079b          	addiw	a5,a4,1
   13a02:	00f5e763          	bltu	a1,a5,13a10 <__gettextparse+0x122>
   13a06:	97ea                	add	a5,a5,s10
   13a08:	0207c703          	lbu	a4,32(a5)
   13a0c:	00a70963          	beq	a4,a0,13a1e <__gettextparse+0x130>
   13a10:	03b40263          	beq	s0,s11,13a34 <__gettextparse+0x146>
   13a14:	1479                	addi	s0,s0,-2
   13a16:	14e1                	addi	s1,s1,-8
   13a18:	00041b83          	lh	s7,0(s0)
   13a1c:	bfd9                	j	139f2 <__gettextparse+0x104>
   13a1e:	0587cb83          	lbu	s7,88(a5)
   13a22:	fe0b87e3          	beqz	s7,13a10 <__gettextparse+0x122>
   13a26:	77e2                	ld	a5,56(sp)
   13a28:	8322                	mv	t1,s0
   13a2a:	04a1                	addi	s1,s1,8
   13a2c:	e09c                	sd	a5,0(s1)
   13a2e:	478d                	li	a5,3
   13a30:	e83e                	sd	a5,16(sp)
   13a32:	a855                	j	13ae6 <__gettextparse+0x1f8>
   13a34:	4485                	li	s1,1
   13a36:	01440563          	beq	s0,s4,13a40 <__gettextparse+0x152>
   13a3a:	8522                	mv	a0,s0
   13a3c:	41c0a0ef          	jal	ra,1de58 <__free>
   13a40:	6785                	lui	a5,0x1
   13a42:	82878793          	addi	a5,a5,-2008 # 828 <catch_hook+0x7d0>
   13a46:	978a                	add	a5,a5,sp
   13a48:	6398                	ld	a4,0(a5)
   13a4a:	0006b7b7          	lui	a5,0x6b
   13a4e:	ba07b783          	ld	a5,-1120(a5) # 6aba0 <__fini_array_end>
   13a52:	8526                	mv	a0,s1
   13a54:	42f71663          	bne	a4,a5,13e80 <__gettextparse+0x592>
   13a58:	614d                	addi	sp,sp,176
   13a5a:	7e813083          	ld	ra,2024(sp)
   13a5e:	7e013403          	ld	s0,2016(sp)
   13a62:	7d813483          	ld	s1,2008(sp)
   13a66:	7d013903          	ld	s2,2000(sp)
   13a6a:	7c813983          	ld	s3,1992(sp)
   13a6e:	7c013a03          	ld	s4,1984(sp)
   13a72:	7b813a83          	ld	s5,1976(sp)
   13a76:	7b013b03          	ld	s6,1968(sp)
   13a7a:	7a813b83          	ld	s7,1960(sp)
   13a7e:	7a013c03          	ld	s8,1952(sp)
   13a82:	79813c83          	ld	s9,1944(sp)
   13a86:	79013d03          	ld	s10,1936(sp)
   13a8a:	78813d83          	ld	s11,1928(sp)
   13a8e:	7f010113          	addi	sp,sp,2032
   13a92:	8082                	ret
   13a94:	21305163          	blez	s3,13c96 <__gettextparse+0x3a8>
   13a98:	59f9                	li	s3,-2
   13a9a:	bf81                	j	139ea <__gettextparse+0xfc>
   13a9c:	ff84a583          	lw	a1,-8(s1)
   13aa0:	609c                	ld	a5,0(s1)
   13aa2:	ff04b703          	ld	a4,-16(s1)
   13aa6:	0090                	addi	a2,sp,64
   13aa8:	4509                	li	a0,2
   13aaa:	e0ba                	sd	a4,64(sp)
   13aac:	e4be                	sd	a5,72(sp)
   13aae:	d85ff0ef          	jal	ra,13832 <new_exp>
   13ab2:	5bfd                	li	s7,-1
   13ab4:	fe848713          	addi	a4,s1,-24
   13ab8:	ffa40313          	addi	t1,s0,-6
   13abc:	4e09                	li	t3,2
   13abe:	00031603          	lh	a2,0(t1)
   13ac2:	03600593          	li	a1,54
   13ac6:	e708                	sd	a0,8(a4)
   13ac8:	017607bb          	addw	a5,a2,s7
   13acc:	00870493          	addi	s1,a4,8
   13ad0:	00f5e763          	bltu	a1,a5,13ade <__gettextparse+0x1f0>
   13ad4:	97ea                	add	a5,a5,s10
   13ad6:	02078703          	lb	a4,32(a5)
   13ada:	1ac70b63          	beq	a4,a2,13c90 <__gettextparse+0x3a2>
   13ade:	67e2                	ld	a5,24(sp)
   13ae0:	97f2                	add	a5,a5,t3
   13ae2:	00078b83          	lb	s7,0(a5)
   13ae6:	001c9613          	slli	a2,s9,0x1
   13aea:	ffe60713          	addi	a4,a2,-2
   13aee:	00230413          	addi	s0,t1,2
   13af2:	01731123          	sh	s7,2(t1)
   13af6:	976e                	add	a4,a4,s11
   13af8:	06e46d63          	bltu	s0,a4,13b72 <__gettextparse+0x284>
   13afc:	41b404b3          	sub	s1,s0,s11
   13b00:	6709                	lui	a4,0x2
   13b02:	8485                	srai	s1,s1,0x1
   13b04:	70f70593          	addi	a1,a4,1807 # 270f <catch_hook+0x26b7>
   13b08:	0485                	addi	s1,s1,1
   13b0a:	1b95ea63          	bltu	a1,s9,13cbe <__gettextparse+0x3d0>
   13b0e:	71070713          	addi	a4,a4,1808
   13b12:	8cb2                	mv	s9,a2
   13b14:	00c77363          	bleu	a2,a4,13b1a <__gettextparse+0x22c>
   13b18:	8cba                	mv	s9,a4
   13b1a:	002c9513          	slli	a0,s9,0x2
   13b1e:	9566                	add	a0,a0,s9
   13b20:	0506                	slli	a0,a0,0x1
   13b22:	051d                	addi	a0,a0,7
   13b24:	6bd090ef          	jal	ra,1d9e0 <__libc_malloc>
   13b28:	8c2a                	mv	s8,a0
   13b2a:	18050a63          	beqz	a0,13cbe <__gettextparse+0x3d0>
   13b2e:	00149413          	slli	s0,s1,0x1
   13b32:	8622                	mv	a2,s0
   13b34:	85ee                	mv	a1,s11
   13b36:	1840c0ef          	jal	ra,1fcba <memcpy>
   13b3a:	001c9913          	slli	s2,s9,0x1
   13b3e:	00790713          	addi	a4,s2,7
   13b42:	9b61                	andi	a4,a4,-8
   13b44:	65a2                	ld	a1,8(sp)
   13b46:	00ec0b33          	add	s6,s8,a4
   13b4a:	048e                	slli	s1,s1,0x3
   13b4c:	8626                	mv	a2,s1
   13b4e:	855a                	mv	a0,s6
   13b50:	16a0c0ef          	jal	ra,1fcba <memcpy>
   13b54:	014d8563          	beq	s11,s4,13b5e <__gettextparse+0x270>
   13b58:	856e                	mv	a0,s11
   13b5a:	2fe0a0ef          	jal	ra,1de58 <__free>
   13b5e:	1479                	addi	s0,s0,-2
   13b60:	1979                	addi	s2,s2,-2
   13b62:	14e1                	addi	s1,s1,-8
   13b64:	9462                	add	s0,s0,s8
   13b66:	9962                	add	s2,s2,s8
   13b68:	94da                	add	s1,s1,s6
   13b6a:	2d247a63          	bleu	s2,s0,13e3e <__gettextparse+0x550>
   13b6e:	e45a                	sd	s6,8(sp)
   13b70:	8de2                	mv	s11,s8
   13b72:	4725                	li	a4,9
   13b74:	e0eb94e3          	bne	s7,a4,1397c <__gettextparse+0x8e>
   13b78:	846e                	mv	s0,s11
   13b7a:	4481                	li	s1,0
   13b7c:	bd6d                	j	13a36 <__gettextparse+0x148>
   13b7e:	7782                	ld	a5,32(sp)
   13b80:	02000313          	li	t1,32
   13b84:	4e25                	li	t3,9
   13b86:	638c                	ld	a1,0(a5)
   13b88:	0005c603          	lbu	a2,0(a1)
   13b8c:	ca09                	beqz	a2,13b9e <__gettextparse+0x2b0>
   13b8e:	00660463          	beq	a2,t1,13b96 <__gettextparse+0x2a8>
   13b92:	11c61763          	bne	a2,t3,13ca0 <__gettextparse+0x3b2>
   13b96:	0585                	addi	a1,a1,1
   13b98:	0005c603          	lbu	a2,0(a1)
   13b9c:	fa6d                	bnez	a2,13b8e <__gettextparse+0x2a0>
   13b9e:	7782                	ld	a5,32(sp)
   13ba0:	4601                	li	a2,0
   13ba2:	4981                	li	s3,0
   13ba4:	e38c                	sd	a1,0(a5)
   13ba6:	bbf5                	j	139a2 <__gettextparse+0xb4>
   13ba8:	05874b83          	lbu	s7,88(a4)
   13bac:	000b8f63          	beqz	s7,13bca <__gettextparse+0x2dc>
   13bb0:	67c2                	ld	a5,16(sp)
   13bb2:	c399                	beqz	a5,13bb8 <__gettextparse+0x2ca>
   13bb4:	37fd                	addiw	a5,a5,-1
   13bb6:	e83e                	sd	a5,16(sp)
   13bb8:	77e2                	ld	a5,56(sp)
   13bba:	8322                	mv	t1,s0
   13bbc:	04a1                	addi	s1,s1,8
   13bbe:	e09c                	sd	a5,0(s1)
   13bc0:	59f9                	li	s3,-2
   13bc2:	b715                	j	13ae6 <__gettextparse+0x1f8>
   13bc4:	4601                	li	a2,0
   13bc6:	4981                	li	s3,0
   13bc8:	bbe9                	j	139a2 <__gettextparse+0xb4>
   13bca:	6488                	ld	a0,8(s1)
   13bcc:	8322                	mv	t1,s0
   13bce:	8726                	mv	a4,s1
   13bd0:	5e41                	li	t3,-16
   13bd2:	b5f5                	j	13abe <__gettextparse+0x1d0>
   13bd4:	ff84b503          	ld	a0,-8(s1)
   13bd8:	fe848713          	addi	a4,s1,-24
   13bdc:	ffa40313          	addi	t1,s0,-6
   13be0:	5bfd                	li	s7,-1
   13be2:	4e09                	li	t3,2
   13be4:	bde9                	j	13abe <__gettextparse+0x1d0>
   13be6:	4601                	li	a2,0
   13be8:	4585                	li	a1,1
   13bea:	4501                	li	a0,0
   13bec:	c47ff0ef          	jal	ra,13832 <new_exp>
   13bf0:	ffe40313          	addi	t1,s0,-2
   13bf4:	ff848713          	addi	a4,s1,-8
   13bf8:	24050063          	beqz	a0,13e38 <__gettextparse+0x54a>
   13bfc:	6090                	ld	a2,0(s1)
   13bfe:	5bfd                	li	s7,-1
   13c00:	4e09                	li	t3,2
   13c02:	e510                	sd	a2,8(a0)
   13c04:	bd6d                	j	13abe <__gettextparse+0x1d0>
   13c06:	4601                	li	a2,0
   13c08:	4581                	li	a1,0
   13c0a:	4501                	li	a0,0
   13c0c:	c27ff0ef          	jal	ra,13832 <new_exp>
   13c10:	ff848713          	addi	a4,s1,-8
   13c14:	ffe40313          	addi	t1,s0,-2
   13c18:	5bfd                	li	s7,-1
   13c1a:	4e09                	li	t3,2
   13c1c:	b54d                	j	13abe <__gettextparse+0x1d0>
   13c1e:	609c                	ld	a5,0(s1)
   13c20:	0090                	addi	a2,sp,64
   13c22:	4589                	li	a1,2
   13c24:	4505                	li	a0,1
   13c26:	e0be                	sd	a5,64(sp)
   13c28:	c0bff0ef          	jal	ra,13832 <new_exp>
   13c2c:	5bfd                	li	s7,-1
   13c2e:	ff048713          	addi	a4,s1,-16
   13c32:	ffc40313          	addi	t1,s0,-4
   13c36:	4e09                	li	t3,2
   13c38:	b559                	j	13abe <__gettextparse+0x1d0>
   13c3a:	609c                	ld	a5,0(s1)
   13c3c:	cfb9                	beqz	a5,13c9a <__gettextparse+0x3ac>
   13c3e:	7702                	ld	a4,32(sp)
   13c40:	ffe40313          	addi	t1,s0,-2
   13c44:	5bd9                	li	s7,-10
   13c46:	e71c                	sd	a5,8(a4)
   13c48:	4e05                	li	t3,1
   13c4a:	ff848713          	addi	a4,s1,-8
   13c4e:	bd85                	j	13abe <__gettextparse+0x1d0>
   13c50:	ff04b703          	ld	a4,-16(s1)
   13c54:	fe04b303          	ld	t1,-32(s1)
   13c58:	609c                	ld	a5,0(s1)
   13c5a:	0090                	addi	a2,sp,64
   13c5c:	45c1                	li	a1,16
   13c5e:	450d                	li	a0,3
   13c60:	e09a                	sd	t1,64(sp)
   13c62:	e4ba                	sd	a4,72(sp)
   13c64:	e8be                	sd	a5,80(sp)
   13c66:	bcdff0ef          	jal	ra,13832 <new_exp>
   13c6a:	5bfd                	li	s7,-1
   13c6c:	fd848713          	addi	a4,s1,-40
   13c70:	ff640313          	addi	t1,s0,-10
   13c74:	4e09                	li	t3,2
   13c76:	b5a1                	j	13abe <__gettextparse+0x1d0>
   13c78:	609c                	ld	a5,0(s1)
   13c7a:	ff04b703          	ld	a4,-16(s1)
   13c7e:	0090                	addi	a2,sp,64
   13c80:	45bd                	li	a1,15
   13c82:	b51d                	j	13aa8 <__gettextparse+0x1ba>
   13c84:	609c                	ld	a5,0(s1)
   13c86:	ff04b703          	ld	a4,-16(s1)
   13c8a:	0090                	addi	a2,sp,64
   13c8c:	45b9                	li	a1,14
   13c8e:	bd29                	j	13aa8 <__gettextparse+0x1ba>
   13c90:	0587cb83          	lbu	s7,88(a5)
   13c94:	bd89                	j	13ae6 <__gettextparse+0x1f8>
   13c96:	d4099ae3          	bnez	s3,139ea <__gettextparse+0xfc>
   13c9a:	846e                	mv	s0,s11
   13c9c:	4485                	li	s1,1
   13c9e:	bb61                	j	13a36 <__gettextparse+0x148>
   13ca0:	07c00313          	li	t1,124
   13ca4:	00158e13          	addi	t3,a1,1
   13ca8:	0006099b          	sext.w	s3,a2
   13cac:	04c36863          	bltu	t1,a2,13cfc <__gettextparse+0x40e>
   13cb0:	77a2                	ld	a5,40(sp)
   13cb2:	00261313          	slli	t1,a2,0x2
   13cb6:	933e                	add	t1,t1,a5
   13cb8:	00032303          	lw	t1,0(t1)
   13cbc:	8302                	jr	t1
   13cbe:	846e                	mv	s0,s11
   13cc0:	4489                	li	s1,2
   13cc2:	bb95                	j	13a36 <__gettextparse+0x148>
   13cc4:	00bd07b3          	add	a5,s10,a1
   13cc8:	0c07c783          	lbu	a5,192(a5)
   13ccc:	00361713          	slli	a4,a2,0x3
   13cd0:	0606                	slli	a2,a2,0x1
   13cd2:	ff078e1b          	addiw	t3,a5,-16
   13cd6:	77c2                	ld	a5,48(sp)
   13cd8:	40e48733          	sub	a4,s1,a4
   13cdc:	40c40333          	sub	t1,s0,a2
   13ce0:	97f2                	add	a5,a5,t3
   13ce2:	00078b83          	lb	s7,0(a5)
   13ce6:	bbe1                	j	13abe <__gettextparse+0x1d0>
   13ce8:	00258e13          	addi	t3,a1,2
   13cec:	7782                	ld	a5,32(sp)
   13cee:	01c7b023          	sd	t3,0(a5)
   13cf2:	b145                	j	13992 <__gettextparse+0xa4>
   13cf4:	0015c303          	lbu	t1,1(a1)
   13cf8:	fec308e3          	beq	t1,a2,13ce8 <__gettextparse+0x3fa>
   13cfc:	7782                	ld	a5,32(sp)
   13cfe:	4605                	li	a2,1
   13d00:	10000993          	li	s3,256
   13d04:	01c7b023          	sd	t3,0(a5)
   13d08:	b959                	j	1399e <__gettextparse+0xb0>
   13d0a:	77e2                	ld	a5,56(sp)
   13d0c:	577d                	li	a4,-1
   13d0e:	1702                	slli	a4,a4,0x20
   13d10:	8f7d                	and	a4,a4,a5
